
fdt.o:     file format elf32-littlearm


Disassembly of section .text:

00000000 <kernel_tree_alloc>:

	pr_debug(" <- unflatten_device_tree()\n");
}

static void *kernel_tree_alloc(u64 size, u64 align)
{
   0:	e1a0c00d 	mov	ip, sp
   4:	e92dd800 	push	{fp, ip, lr, pc}
   8:	e24cb004 	sub	fp, ip, #4
   c:	e52de004 	push	{lr}		; (str lr, [sp, #-4]!)
  10:	ebfffffe 	bl	0 <__gnu_mcount_nc>
			return kmem_cache_alloc_trace(kmalloc_caches[index],
					flags, size);
		}
#endif
	}
	return __kmalloc(size, flags);
  14:	e30810c0 	movw	r1, #32960	; 0x80c0
  18:	e3401240 	movt	r1, #576	; 0x240
  1c:	ebfffffe 	bl	0 <__kmalloc>
	return kzalloc(size, GFP_KERNEL);
}
  20:	e89da800 	ldm	sp, {fp, sp, pc}

00000024 <of_fdt_raw_read>:

#ifdef CONFIG_SYSFS
static ssize_t of_fdt_raw_read(struct file *filp, struct kobject *kobj,
			       struct bin_attribute *bin_attr,
			       char *buf, loff_t off, size_t count)
{
  24:	e1a0c00d 	mov	ip, sp
  28:	e92dd800 	push	{fp, ip, lr, pc}
  2c:	e24cb004 	sub	fp, ip, #4
  30:	e52de004 	push	{lr}		; (str lr, [sp, #-4]!)
  34:	ebfffffe 	bl	0 <__gnu_mcount_nc>
	memcpy(buf, initial_boot_params + off, count);
  38:	e3002000 	movw	r2, #0
  3c:	e3402000 	movt	r2, #0
  40:	e1a00003 	mov	r0, r3

#ifdef CONFIG_SYSFS
static ssize_t of_fdt_raw_read(struct file *filp, struct kobject *kobj,
			       struct bin_attribute *bin_attr,
			       char *buf, loff_t off, size_t count)
{
  44:	e59b3004 	ldr	r3, [fp, #4]
	memcpy(buf, initial_boot_params + off, count);
  48:	e5921000 	ldr	r1, [r2]
  4c:	e59b200c 	ldr	r2, [fp, #12]
  50:	e0811003 	add	r1, r1, r3
  54:	ebfffffe 	bl	0 <memcpy>
	return count;
}
  58:	e59b000c 	ldr	r0, [fp, #12]
  5c:	e89da800 	ldm	sp, {fp, sp, pc}

00000060 <unflatten_dt_node>:
				int *poffset,
				struct device_node *dad,
				struct device_node **nodepp,
				unsigned long fpsize,
				bool dryrun)
{
  60:	e1a0c00d 	mov	ip, sp
  64:	e92ddff0 	push	{r4, r5, r6, r7, r8, r9, sl, fp, ip, lr, pc}
  68:	e24cb004 	sub	fp, ip, #4
  6c:	e24dd04c 	sub	sp, sp, #76	; 0x4c
  70:	e52de004 	push	{lr}		; (str lr, [sp, #-4]!)
  74:	ebfffffe 	bl	0 <__gnu_mcount_nc>
  78:	e1a05003 	mov	r5, r3
  7c:	e5db300c 	ldrb	r3, [fp, #12]
  80:	e1a0c002 	mov	ip, r2
  84:	e50b205c 	str	r2, [fp, #-92]	; 0xffffffa4
  88:	e1a08001 	mov	r8, r1
	int old_depth;
	int offset;
	int has_name = 0;
	int new_format = 0;

	pathp = fdt_get_name(blob, *poffset, &l);
  8c:	e24b2038 	sub	r2, fp, #56	; 0x38
  90:	e59c1000 	ldr	r1, [ip]
				int *poffset,
				struct device_node *dad,
				struct device_node **nodepp,
				unsigned long fpsize,
				bool dryrun)
{
  94:	e1a06000 	mov	r6, r0
  98:	e50b3040 	str	r3, [fp, #-64]	; 0xffffffc0
	int old_depth;
	int offset;
	int has_name = 0;
	int new_format = 0;

	pathp = fdt_get_name(blob, *poffset, &l);
  9c:	ebfffffe 	bl	0 <fdt_get_name>
	if (!pathp)
  a0:	e2503000 	subs	r3, r0, #0
  a4:	e50b3060 	str	r3, [fp, #-96]	; 0xffffffa0
  a8:	e1a02003 	mov	r2, r3
  ac:	0a000127 	beq	550 <unflatten_dt_node+0x4f0>
		return mem;

	allocl = ++l;
  b0:	e51b4038 	ldr	r4, [fp, #-56]	; 0xffffffc8
  b4:	e2843001 	add	r3, r4, #1
  b8:	e50b3038 	str	r3, [fp, #-56]	; 0xffffffc8
	/* version 0x10 has a more compact unit name here instead of the full
	 * path. we accumulate the full path size using "fpsize", we'll rebuild
	 * it later. We detect this because the first character of the name is
	 * not '/'.
	 */
	if ((*pathp) != '/') {
  bc:	e5d22000 	ldrb	r2, [r2]
  c0:	e352002f 	cmp	r2, #47	; 0x2f
  c4:	02844059 	addeq	r4, r4, #89	; 0x59
	unsigned int l, allocl;
	static int depth;
	int old_depth;
	int offset;
	int has_name = 0;
	int new_format = 0;
  c8:	03a09000 	moveq	r9, #0
	/* version 0x10 has a more compact unit name here instead of the full
	 * path. we accumulate the full path size using "fpsize", we'll rebuild
	 * it later. We detect this because the first character of the name is
	 * not '/'.
	 */
	if ((*pathp) != '/') {
  cc:	0a00000a 	beq	fc <unflatten_dt_node+0x9c>
		new_format = 1;
		if (fpsize == 0) {
  d0:	e59b2008 	ldr	r2, [fp, #8]
  d4:	e3520000 	cmp	r2, #0
  d8:	1a0000f0 	bne	4a0 <unflatten_dt_node+0x440>
			 * fpsize should be 2, but we want to avoid the first
			 * level nodes to have two '/' so we use fpsize 1 here
			 */
			fpsize = 1;
			allocl = 2;
			l = 1;
  dc:	e3a03001 	mov	r3, #1
  e0:	e3a0405a 	mov	r4, #90	; 0x5a
	 * path. we accumulate the full path size using "fpsize", we'll rebuild
	 * it later. We detect this because the first character of the name is
	 * not '/'.
	 */
	if ((*pathp) != '/') {
		new_format = 1;
  e4:	e1a09003 	mov	r9, r3
			 * level nodes to have two '/' so we use fpsize 1 here
			 */
			fpsize = 1;
			allocl = 2;
			l = 1;
			pathp = "";
  e8:	e3002000 	movw	r2, #0
			 * fpsize should be 2, but we want to avoid the first
			 * level nodes to have two '/' so we use fpsize 1 here
			 */
			fpsize = 1;
			allocl = 2;
			l = 1;
  ec:	e50b3038 	str	r3, [fp, #-56]	; 0xffffffc8
			pathp = "";
  f0:	e3402000 	movt	r2, #0
			/* root node: special case. fpsize accounts for path
			 * plus terminating zero. root node only has '/', so
			 * fpsize should be 2, but we want to avoid the first
			 * level nodes to have two '/' so we use fpsize 1 here
			 */
			fpsize = 1;
  f4:	e58b3008 	str	r3, [fp, #8]
			allocl = 2;
			l = 1;
			pathp = "";
  f8:	e50b2060 	str	r2, [fp, #-96]	; 0xffffffa0
		}
	}

	np = unflatten_dt_alloc(&mem, sizeof(struct device_node) + allocl,
				__alignof__(struct device_node));
	if (!dryrun) {
  fc:	e51b3040 	ldr	r3, [fp, #-64]	; 0xffffffc0
static void *unflatten_dt_alloc(void **mem, unsigned long size,
				       unsigned long align)
{
	void *res;

	*mem = PTR_ALIGN(*mem, align);
 100:	e2888003 	add	r8, r8, #3
 104:	e3c88003 	bic	r8, r8, #3
		}
	}

	np = unflatten_dt_alloc(&mem, sizeof(struct device_node) + allocl,
				__alignof__(struct device_node));
	if (!dryrun) {
 108:	e3530000 	cmp	r3, #0
{
	void *res;

	*mem = PTR_ALIGN(*mem, align);
	res = *mem;
	*mem += size;
 10c:	e0884004 	add	r4, r8, r4
				unsigned long fpsize,
				bool dryrun)
{
	const __be32 *p;
	struct device_node *np;
	struct property *pp, **prev_pp = NULL;
 110:	13a03000 	movne	r3, #0
 114:	150b3044 	strne	r3, [fp, #-68]	; 0xffffffbc
		}
	}

	np = unflatten_dt_alloc(&mem, sizeof(struct device_node) + allocl,
				__alignof__(struct device_node));
	if (!dryrun) {
 118:	0a0000e8 	beq	4c0 <unflatten_dt_node+0x460>
			np->sibling = dad->child;
			dad->child = np;
		}
	}
	/* process properties */
	for (offset = fdt_first_property_offset(blob, *poffset);
 11c:	e51b305c 	ldr	r3, [fp, #-92]	; 0xffffffa4
 120:	e1a00006 	mov	r0, r6
 124:	e5931000 	ldr	r1, [r3]
 128:	ebfffffe 	bl	0 <fdt_first_property_offset>
 12c:	e2505000 	subs	r5, r0, #0
 130:	ba000093 	blt	384 <unflatten_dt_node+0x324>

		if (pname == NULL) {
			pr_info("Can't find property name in list !\n");
			break;
		}
		if (strcmp(pname, "name") == 0)
 134:	e3003000 	movw	r3, #0
 138:	e3403000 	movt	r3, #0
 13c:	e50b3048 	str	r3, [fp, #-72]	; 0xffffffb8
					np->phandle = be32_to_cpup(p);
			}
			/* And we process the "ibm,phandle" property
			 * used in pSeries dynamic device tree
			 * stuff */
			if (strcmp(pname, "ibm,phandle") == 0)
 140:	e3003000 	movw	r3, #0
 144:	e3403000 	movt	r3, #0
 148:	e50b3054 	str	r3, [fp, #-84]	; 0xffffffac
			np->sibling = dad->child;
			dad->child = np;
		}
	}
	/* process properties */
	for (offset = fdt_first_property_offset(blob, *poffset);
 14c:	e3a03000 	mov	r3, #0
			/* We accept flattened tree phandles either in
			 * ePAPR-style "phandle" properties, or the
			 * legacy "linux,phandle" properties.  If both
			 * appear and have different values, things
			 * will get weird.  Don't do that. */
			if ((strcmp(pname, "phandle") == 0) ||
 150:	e3002000 	movw	r2, #0
			np->sibling = dad->child;
			dad->child = np;
		}
	}
	/* process properties */
	for (offset = fdt_first_property_offset(blob, *poffset);
 154:	e1a07003 	mov	r7, r3
			/* We accept flattened tree phandles either in
			 * ePAPR-style "phandle" properties, or the
			 * legacy "linux,phandle" properties.  If both
			 * appear and have different values, things
			 * will get weird.  Don't do that. */
			if ((strcmp(pname, "phandle") == 0) ||
 158:	e3402000 	movt	r2, #0
			np->sibling = dad->child;
			dad->child = np;
		}
	}
	/* process properties */
	for (offset = fdt_first_property_offset(blob, *poffset);
 15c:	e50b804c 	str	r8, [fp, #-76]	; 0xffffffb4
			/* We accept flattened tree phandles either in
			 * ePAPR-style "phandle" properties, or the
			 * legacy "linux,phandle" properties.  If both
			 * appear and have different values, things
			 * will get weird.  Don't do that. */
			if ((strcmp(pname, "phandle") == 0) ||
 160:	e50b2050 	str	r2, [fp, #-80]	; 0xffffffb0
			    (strcmp(pname, "linux,phandle") == 0)) {
 164:	e3002000 	movw	r2, #0
 168:	e3402000 	movt	r2, #0
 16c:	e50b2058 	str	r2, [fp, #-88]	; 0xffffffa8
 170:	ea000032 	b	240 <unflatten_dt_node+0x1e0>
		if (!(p = fdt_getprop_by_offset(blob, offset, &pname, &sz))) {
			offset = -FDT_ERR_INTERNAL;
			break;
		}

		if (pname == NULL) {
 174:	e51ba034 	ldr	sl, [fp, #-52]	; 0xffffffcc
 178:	e35a0000 	cmp	sl, #0
 17c:	0a0000fb 	beq	570 <unflatten_dt_node+0x510>
			pr_info("Can't find property name in list !\n");
			break;
		}
		if (strcmp(pname, "name") == 0)
 180:	e51b1048 	ldr	r1, [fp, #-72]	; 0xffffffb8
 184:	e1a0000a 	mov	r0, sl
 188:	ebfffffe 	bl	0 <strcmp>
			has_name = 1;
		pp = unflatten_dt_alloc(&mem, sizeof(struct property),
					__alignof__(struct property));
		if (!dryrun) {
 18c:	e51b3040 	ldr	r3, [fp, #-64]	; 0xffffffc0
static void *unflatten_dt_alloc(void **mem, unsigned long size,
				       unsigned long align)
{
	void *res;

	*mem = PTR_ALIGN(*mem, align);
 190:	e2844003 	add	r4, r4, #3
 194:	e3c48003 	bic	r8, r4, #3
	res = *mem;
	*mem += size;
 198:	e2884034 	add	r4, r8, #52	; 0x34
		if (pname == NULL) {
			pr_info("Can't find property name in list !\n");
			break;
		}
		if (strcmp(pname, "name") == 0)
			has_name = 1;
 19c:	e3500000 	cmp	r0, #0
 1a0:	03a07001 	moveq	r7, #1
		pp = unflatten_dt_alloc(&mem, sizeof(struct property),
					__alignof__(struct property));
		if (!dryrun) {
 1a4:	e3530000 	cmp	r3, #0
 1a8:	1a00001f 	bne	22c <unflatten_dt_node+0x1cc>
			/* We accept flattened tree phandles either in
			 * ePAPR-style "phandle" properties, or the
			 * legacy "linux,phandle" properties.  If both
			 * appear and have different values, things
			 * will get weird.  Don't do that. */
			if ((strcmp(pname, "phandle") == 0) ||
 1ac:	e51b1050 	ldr	r1, [fp, #-80]	; 0xffffffb0
 1b0:	e1a0000a 	mov	r0, sl
 1b4:	ebfffffe 	bl	0 <strcmp>
 1b8:	e3500000 	cmp	r0, #0
 1bc:	0a000004 	beq	1d4 <unflatten_dt_node+0x174>
			    (strcmp(pname, "linux,phandle") == 0)) {
 1c0:	e51b1058 	ldr	r1, [fp, #-88]	; 0xffffffa8
 1c4:	e1a0000a 	mov	r0, sl
 1c8:	ebfffffe 	bl	0 <strcmp>
			/* We accept flattened tree phandles either in
			 * ePAPR-style "phandle" properties, or the
			 * legacy "linux,phandle" properties.  If both
			 * appear and have different values, things
			 * will get weird.  Don't do that. */
			if ((strcmp(pname, "phandle") == 0) ||
 1cc:	e3500000 	cmp	r0, #0
 1d0:	1a000006 	bne	1f0 <unflatten_dt_node+0x190>
			    (strcmp(pname, "linux,phandle") == 0)) {
				if (np->phandle == 0)
 1d4:	e51b304c 	ldr	r3, [fp, #-76]	; 0xffffffb4
 1d8:	e5931008 	ldr	r1, [r3, #8]
 1dc:	e3510000 	cmp	r1, #0
static inline __u32 __swab32p(const __u32 *p)
{
#ifdef __arch_swab32p
	return __arch_swab32p(p);
#else
	return __swab32(*p);
 1e0:	05991000 	ldreq	r1, [r9]
					np->phandle = be32_to_cpup(p);
 1e4:	051b304c 	ldreq	r3, [fp, #-76]	; 0xffffffb4
}

static inline __attribute_const__ __u32 __fswab32(__u32 val)
{
#ifdef __HAVE_BUILTIN_BSWAP32__
	return __builtin_bswap32(val);
 1e8:	06bf1f31 	reveq	r1, r1
 1ec:	05831008 	streq	r1, [r3, #8]
			}
			/* And we process the "ibm,phandle" property
			 * used in pSeries dynamic device tree
			 * stuff */
			if (strcmp(pname, "ibm,phandle") == 0)
 1f0:	e51b1054 	ldr	r1, [fp, #-84]	; 0xffffffac
 1f4:	e1a0000a 	mov	r0, sl
 1f8:	ebfffffe 	bl	0 <strcmp>
 1fc:	e3500000 	cmp	r0, #0
 200:	05991000 	ldreq	r1, [r9]
				np->phandle = be32_to_cpup(p);
 204:	051b304c 	ldreq	r3, [fp, #-76]	; 0xffffffb4
 208:	06bf1f31 	reveq	r1, r1
 20c:	05831008 	streq	r1, [r3, #8]
			pp->name = (char *)pname;
			pp->length = sz;
			pp->value = (__be32 *)p;
			*prev_pp = pp;
 210:	e51b3044 	ldr	r3, [fp, #-68]	; 0xffffffbc
			 * used in pSeries dynamic device tree
			 * stuff */
			if (strcmp(pname, "ibm,phandle") == 0)
				np->phandle = be32_to_cpup(p);
			pp->name = (char *)pname;
			pp->length = sz;
 214:	e51b1030 	ldr	r1, [fp, #-48]	; 0xffffffd0
			/* And we process the "ibm,phandle" property
			 * used in pSeries dynamic device tree
			 * stuff */
			if (strcmp(pname, "ibm,phandle") == 0)
				np->phandle = be32_to_cpup(p);
			pp->name = (char *)pname;
 218:	e588a000 	str	sl, [r8]
			pp->length = sz;
 21c:	e9880202 	stmib	r8, {r1, r9}
			pp->value = (__be32 *)p;
			*prev_pp = pp;
 220:	e5838000 	str	r8, [r3]
			prev_pp = &pp->next;
 224:	e288300c 	add	r3, r8, #12
 228:	e50b3044 	str	r3, [fp, #-68]	; 0xffffffbc
		}
	}
	/* process properties */
	for (offset = fdt_first_property_offset(blob, *poffset);
	     (offset >= 0);
	     (offset = fdt_next_property_offset(blob, offset))) {
 22c:	e1a01005 	mov	r1, r5
 230:	e1a00006 	mov	r0, r6
 234:	ebfffffe 	bl	0 <fdt_next_property_offset>
			np->sibling = dad->child;
			dad->child = np;
		}
	}
	/* process properties */
	for (offset = fdt_first_property_offset(blob, *poffset);
 238:	e2505000 	subs	r5, r0, #0
 23c:	ba000006 	blt	25c <unflatten_dt_node+0x1fc>
	     (offset >= 0);
	     (offset = fdt_next_property_offset(blob, offset))) {
		const char *pname;
		u32 sz;

		if (!(p = fdt_getprop_by_offset(blob, offset, &pname, &sz))) {
 240:	e24b3030 	sub	r3, fp, #48	; 0x30
 244:	e24b2034 	sub	r2, fp, #52	; 0x34
 248:	e1a01005 	mov	r1, r5
 24c:	e1a00006 	mov	r0, r6
 250:	ebfffffe 	bl	0 <fdt_getprop_by_offset>
 254:	e2509000 	subs	r9, r0, #0
 258:	1affffc5 	bne	174 <unflatten_dt_node+0x114>
 25c:	e51b804c 	ldr	r8, [fp, #-76]	; 0xffffffb4
 260:	e1a05007 	mov	r5, r7
		}
	}
	/* with version 0x10 we may not have the name property, recreate
	 * it here from the unit name if absent
	 */
	if (!has_name) {
 264:	e3550000 	cmp	r5, #0
 268:	0a000045 	beq	384 <unflatten_dt_node+0x324>
			((char *)pp->value)[sz - 1] = 0;
			pr_debug("fixed up name for %s -> %s\n", pathp,
				(char *)pp->value);
		}
	}
	if (!dryrun) {
 26c:	e51b3040 	ldr	r3, [fp, #-64]	; 0xffffffc0
 270:	e3530000 	cmp	r3, #0
 274:	0a000070 	beq	43c <unflatten_dt_node+0x3dc>
		if (!np->type)
			np->type = "<NULL>";
	}

	old_depth = depth;
	*poffset = fdt_next_node(blob, *poffset, &depth);
 278:	e51b705c 	ldr	r7, [fp, #-92]	; 0xffffffa4
			np->name = "<NULL>";
		if (!np->type)
			np->type = "<NULL>";
	}

	old_depth = depth;
 27c:	e3005000 	movw	r5, #0
 280:	e3405000 	movt	r5, #0
	*poffset = fdt_next_node(blob, *poffset, &depth);
 284:	e1a00006 	mov	r0, r6
			np->name = "<NULL>";
		if (!np->type)
			np->type = "<NULL>";
	}

	old_depth = depth;
 288:	e1a02005 	mov	r2, r5
	*poffset = fdt_next_node(blob, *poffset, &depth);
 28c:	e5971000 	ldr	r1, [r7]
			np->name = "<NULL>";
		if (!np->type)
			np->type = "<NULL>";
	}

	old_depth = depth;
 290:	e5b29004 	ldr	r9, [r2, #4]!
	*poffset = fdt_next_node(blob, *poffset, &depth);
 294:	ebfffffe 	bl	0 <fdt_next_node>
 298:	e5870000 	str	r0, [r7]
	if (depth < 0)
 29c:	e5953004 	ldr	r3, [r5, #4]
 2a0:	e3530000 	cmp	r3, #0
		depth = 0;
 2a4:	b3a03000 	movlt	r3, #0
 2a8:	b5853004 	strlt	r3, [r5, #4]
 2ac:	b51b305c 	ldrlt	r3, [fp, #-92]	; 0xffffffa4
 2b0:	b5930000 	ldrlt	r0, [r3]
	while (*poffset > 0 && depth > old_depth)
 2b4:	e3500000 	cmp	r0, #0
 2b8:	da000018 	ble	320 <unflatten_dt_node+0x2c0>
 2bc:	e5953004 	ldr	r3, [r5, #4]
 2c0:	e1590003 	cmp	r9, r3
 2c4:	aa000017 	bge	328 <unflatten_dt_node+0x2c8>
		mem = unflatten_dt_node(blob, mem, poffset, np, NULL,
 2c8:	e1a01004 	mov	r1, r4
 2cc:	e3a0a000 	mov	sl, #0
 2d0:	e1a04005 	mov	r4, r5
 2d4:	e51b705c 	ldr	r7, [fp, #-92]	; 0xffffffa4
 2d8:	e59b5008 	ldr	r5, [fp, #8]
 2dc:	ea000002 	b	2ec <unflatten_dt_node+0x28c>

	old_depth = depth;
	*poffset = fdt_next_node(blob, *poffset, &depth);
	if (depth < 0)
		depth = 0;
	while (*poffset > 0 && depth > old_depth)
 2e0:	e5943004 	ldr	r3, [r4, #4]
 2e4:	e1590003 	cmp	r9, r3
 2e8:	aa000072 	bge	4b8 <unflatten_dt_node+0x458>
		mem = unflatten_dt_node(blob, mem, poffset, np, NULL,
 2ec:	e51b3040 	ldr	r3, [fp, #-64]	; 0xffffffc0
 2f0:	e1a02007 	mov	r2, r7
 2f4:	e58d5004 	str	r5, [sp, #4]
 2f8:	e1a00006 	mov	r0, r6
 2fc:	e58da000 	str	sl, [sp]
 300:	e58d3008 	str	r3, [sp, #8]
 304:	e1a03008 	mov	r3, r8
 308:	ebffff54 	bl	60 <unflatten_dt_node>
 30c:	e1a01000 	mov	r1, r0

	old_depth = depth;
	*poffset = fdt_next_node(blob, *poffset, &depth);
	if (depth < 0)
		depth = 0;
	while (*poffset > 0 && depth > old_depth)
 310:	e5970000 	ldr	r0, [r7]
 314:	e3500000 	cmp	r0, #0
 318:	cafffff0 	bgt	2e0 <unflatten_dt_node+0x280>
 31c:	e1a04001 	mov	r4, r1
		mem = unflatten_dt_node(blob, mem, poffset, np, NULL,
					fpsize, dryrun);

	if (*poffset < 0 && *poffset != -FDT_ERR_NOTFOUND)
 320:	e3700001 	cmn	r0, #1
 324:	ba000097 	blt	588 <unflatten_dt_node+0x528>

	/*
	 * Reverse the child list. Some drivers assumes node order matches .dts
	 * node order
	 */
	if (!dryrun && np->child) {
 328:	e51b3040 	ldr	r3, [fp, #-64]	; 0xffffffc0
 32c:	e3530000 	cmp	r3, #0
 330:	1a00000c 	bne	368 <unflatten_dt_node+0x308>
 334:	e5983024 	ldr	r3, [r8, #36]	; 0x24
 338:	e3530000 	cmp	r3, #0
 33c:	0a000009 	beq	368 <unflatten_dt_node+0x308>
		struct device_node *child = np->child;
		np->child = NULL;
 340:	e51b2040 	ldr	r2, [fp, #-64]	; 0xffffffc0
 344:	e1a07002 	mov	r7, r2
 348:	e5882024 	str	r2, [r8, #36]	; 0x24
		while (child) {
			struct device_node *next = child->sibling;
 34c:	e5932028 	ldr	r2, [r3, #40]	; 0x28
			child->sibling = np->child;
 350:	e5837028 	str	r7, [r3, #40]	; 0x28
 354:	e1a07003 	mov	r7, r3
	 * node order
	 */
	if (!dryrun && np->child) {
		struct device_node *child = np->child;
		np->child = NULL;
		while (child) {
 358:	e3520000 	cmp	r2, #0
			struct device_node *next = child->sibling;
			child->sibling = np->child;
			np->child = child;
 35c:	e5883024 	str	r3, [r8, #36]	; 0x24
 360:	e1a03002 	mov	r3, r2
	 * node order
	 */
	if (!dryrun && np->child) {
		struct device_node *child = np->child;
		np->child = NULL;
		while (child) {
 364:	1afffff8 	bne	34c <unflatten_dt_node+0x2ec>
			np->child = child;
			child = next;
		}
	}

	if (nodepp)
 368:	e59b3004 	ldr	r3, [fp, #4]
		*nodepp = np;
 36c:	e1a00004 	mov	r0, r4
			np->child = child;
			child = next;
		}
	}

	if (nodepp)
 370:	e3530000 	cmp	r3, #0
		*nodepp = np;
 374:	159b3004 	ldrne	r3, [fp, #4]
 378:	15838000 	strne	r8, [r3]

	return mem;
}
 37c:	e24bd028 	sub	sp, fp, #40	; 0x28
 380:	e89daff0 	ldm	sp, {r4, r5, r6, r7, r8, r9, sl, fp, sp, pc}
	 */
	if (!has_name) {
		const char *p1 = pathp, *ps = pathp, *pa = NULL;
		int sz;

		while (*p1) {
 384:	e51b0060 	ldr	r0, [fp, #-96]	; 0xffffffa0
 388:	e5d02000 	ldrb	r2, [r0]
 38c:	e3520000 	cmp	r2, #0
 390:	0a000073 	beq	564 <unflatten_dt_node+0x504>
 394:	e2803001 	add	r3, r0, #1
 398:	e3a0c000 	mov	ip, #0
			if ((*p1) == '@')
 39c:	e3520040 	cmp	r2, #64	; 0x40
 3a0:	e243e001 	sub	lr, r3, #1
				pa = p1;
			if ((*p1) == '/')
 3a4:	e1a01003 	mov	r1, r3
	if (!has_name) {
		const char *p1 = pathp, *ps = pathp, *pa = NULL;
		int sz;

		while (*p1) {
			if ((*p1) == '@')
 3a8:	01a0c00e 	moveq	ip, lr
 3ac:	0a000001 	beq	3b8 <unflatten_dt_node+0x358>
				pa = p1;
			if ((*p1) == '/')
 3b0:	e352002f 	cmp	r2, #47	; 0x2f
 3b4:	01a00003 	moveq	r0, r3
	 */
	if (!has_name) {
		const char *p1 = pathp, *ps = pathp, *pa = NULL;
		int sz;

		while (*p1) {
 3b8:	e4d32001 	ldrb	r2, [r3], #1
 3bc:	e3520000 	cmp	r2, #0
 3c0:	1afffff5 	bne	39c <unflatten_dt_node+0x33c>
 3c4:	e50b0060 	str	r0, [fp, #-96]	; 0xffffffa0
				pa = p1;
			if ((*p1) == '/')
				ps = p1 + 1;
			p1++;
		}
		if (pa < ps)
 3c8:	e51b3060 	ldr	r3, [fp, #-96]	; 0xffffffa0
static void *unflatten_dt_alloc(void **mem, unsigned long size,
				       unsigned long align)
{
	void *res;

	*mem = PTR_ALIGN(*mem, align);
 3cc:	e2844003 	add	r4, r4, #3
 3d0:	e3c45003 	bic	r5, r4, #3
				pa = p1;
			if ((*p1) == '/')
				ps = p1 + 1;
			p1++;
		}
		if (pa < ps)
 3d4:	e15c0003 	cmp	ip, r3
 3d8:	21a0100c 	movcs	r1, ip
			pa = p1;
		sz = (pa - ps) + 1;
 3dc:	e0412003 	sub	r2, r1, r3
		pp = unflatten_dt_alloc(&mem, sizeof(struct property) + sz,
					__alignof__(struct property));
		if (!dryrun) {
 3e0:	e51b3040 	ldr	r3, [fp, #-64]	; 0xffffffc0
{
	void *res;

	*mem = PTR_ALIGN(*mem, align);
	res = *mem;
	*mem += size;
 3e4:	e2824035 	add	r4, r2, #53	; 0x35
 3e8:	e0854004 	add	r4, r5, r4
				ps = p1 + 1;
			p1++;
		}
		if (pa < ps)
			pa = p1;
		sz = (pa - ps) + 1;
 3ec:	e2829001 	add	r9, r2, #1
		pp = unflatten_dt_alloc(&mem, sizeof(struct property) + sz,
					__alignof__(struct property));
		if (!dryrun) {
 3f0:	e3530000 	cmp	r3, #0
 3f4:	1affff9f 	bne	278 <unflatten_dt_node+0x218>
			pp->name = "name";
 3f8:	e3003000 	movw	r3, #0
 3fc:	e3403000 	movt	r3, #0
 400:	e5853000 	str	r3, [r5]
			pp->length = sz;
			pp->value = pp + 1;
 404:	e2853034 	add	r3, r5, #52	; 0x34
 408:	e5853008 	str	r3, [r5, #8]
			*prev_pp = pp;
 40c:	e51b3044 	ldr	r3, [fp, #-68]	; 0xffffffbc
		sz = (pa - ps) + 1;
		pp = unflatten_dt_alloc(&mem, sizeof(struct property) + sz,
					__alignof__(struct property));
		if (!dryrun) {
			pp->name = "name";
			pp->length = sz;
 410:	e5859004 	str	r9, [r5, #4]
			pp->value = pp + 1;
			*prev_pp = pp;
			prev_pp = &pp->next;
			memcpy(pp->value, ps, sz - 1);
 414:	e51b1060 	ldr	r1, [fp, #-96]	; 0xffffffa0
					__alignof__(struct property));
		if (!dryrun) {
			pp->name = "name";
			pp->length = sz;
			pp->value = pp + 1;
			*prev_pp = pp;
 418:	e5835000 	str	r5, [r3]
			prev_pp = &pp->next;
 41c:	e285300c 	add	r3, r5, #12
			memcpy(pp->value, ps, sz - 1);
 420:	e5950008 	ldr	r0, [r5, #8]
		if (!dryrun) {
			pp->name = "name";
			pp->length = sz;
			pp->value = pp + 1;
			*prev_pp = pp;
			prev_pp = &pp->next;
 424:	e50b3044 	str	r3, [fp, #-68]	; 0xffffffbc
			memcpy(pp->value, ps, sz - 1);
 428:	ebfffffe 	bl	0 <memcpy>
			((char *)pp->value)[sz - 1] = 0;
 42c:	e5953008 	ldr	r3, [r5, #8]
 430:	e0839009 	add	r9, r3, r9
 434:	e55b3040 	ldrb	r3, [fp, #-64]	; 0xffffffc0
 438:	e5493001 	strb	r3, [r9, #-1]
			pr_debug("fixed up name for %s -> %s\n", pathp,
				(char *)pp->value);
		}
	}
	if (!dryrun) {
		*prev_pp = NULL;
 43c:	e51b3044 	ldr	r3, [fp, #-68]	; 0xffffffbc
 440:	e3a05000 	mov	r5, #0
		np->name = of_get_property(np, "name", NULL);
 444:	e1a02005 	mov	r2, r5
 448:	e3001000 	movw	r1, #0
 44c:	e1a00008 	mov	r0, r8
 450:	e3401000 	movt	r1, #0
			pr_debug("fixed up name for %s -> %s\n", pathp,
				(char *)pp->value);
		}
	}
	if (!dryrun) {
		*prev_pp = NULL;
 454:	e5835000 	str	r5, [r3]
		np->name = of_get_property(np, "name", NULL);
 458:	ebfffffe 	bl	0 <of_get_property>
		np->type = of_get_property(np, "device_type", NULL);
 45c:	e1a02005 	mov	r2, r5
 460:	e3001000 	movw	r1, #0
 464:	e3401000 	movt	r1, #0
				(char *)pp->value);
		}
	}
	if (!dryrun) {
		*prev_pp = NULL;
		np->name = of_get_property(np, "name", NULL);
 468:	e5880000 	str	r0, [r8]
		np->type = of_get_property(np, "device_type", NULL);
 46c:	e1a00008 	mov	r0, r8
 470:	ebfffffe 	bl	0 <of_get_property>

		if (!np->name)
 474:	e5983000 	ldr	r3, [r8]
 478:	e1530005 	cmp	r3, r5
			np->name = "<NULL>";
 47c:	03003000 	movweq	r3, #0
 480:	03403000 	movteq	r3, #0
 484:	05883000 	streq	r3, [r8]
		if (!np->type)
 488:	e3500000 	cmp	r0, #0
		}
	}
	if (!dryrun) {
		*prev_pp = NULL;
		np->name = of_get_property(np, "name", NULL);
		np->type = of_get_property(np, "device_type", NULL);
 48c:	e5880004 	str	r0, [r8, #4]

		if (!np->name)
			np->name = "<NULL>";
		if (!np->type)
			np->type = "<NULL>";
 490:	03003000 	movweq	r3, #0
 494:	03403000 	movteq	r3, #0
 498:	05883004 	streq	r3, [r8, #4]
 49c:	eaffff75 	b	278 <unflatten_dt_node+0x218>
			pathp = "";
		} else {
			/* account for '/' and path size minus terminal 0
			 * already in 'l'
			 */
			fpsize += l;
 4a0:	e59b2008 	ldr	r2, [fp, #8]
	 * path. we accumulate the full path size using "fpsize", we'll rebuild
	 * it later. We detect this because the first character of the name is
	 * not '/'.
	 */
	if ((*pathp) != '/') {
		new_format = 1;
 4a4:	e3a09001 	mov	r9, #1
			pathp = "";
		} else {
			/* account for '/' and path size minus terminal 0
			 * already in 'l'
			 */
			fpsize += l;
 4a8:	e0823003 	add	r3, r2, r3
 4ac:	e58b3008 	str	r3, [fp, #8]
 4b0:	e2834058 	add	r4, r3, #88	; 0x58
 4b4:	eaffff10 	b	fc <unflatten_dt_node+0x9c>
 4b8:	e1a04001 	mov	r4, r1
 4bc:	eaffff99 	b	328 <unflatten_dt_node+0x2c8>

/* initialize a node */
extern struct kobj_type of_node_ktype;
static inline void of_node_init(struct device_node *node)
{
	kobject_init(&node->kobj, &of_node_ktype);
 4c0:	e3001000 	movw	r1, #0
 4c4:	e288002c 	add	r0, r8, #44	; 0x2c
 4c8:	e3401000 	movt	r1, #0
	np = unflatten_dt_alloc(&mem, sizeof(struct device_node) + allocl,
				__alignof__(struct device_node));
	if (!dryrun) {
		char *fn;
		of_node_init(np);
		np->full_name = fn = ((char *)np) + sizeof(*np);
 4cc:	e288a058 	add	sl, r8, #88	; 0x58
 4d0:	ebfffffe 	bl	0 <kobject_init>
		if (new_format) {
 4d4:	e3590000 	cmp	r9, #0
	node->fwnode.type = FWNODE_OF;
 4d8:	e3a03001 	mov	r3, #1
	np = unflatten_dt_alloc(&mem, sizeof(struct device_node) + allocl,
				__alignof__(struct device_node));
	if (!dryrun) {
		char *fn;
		of_node_init(np);
		np->full_name = fn = ((char *)np) + sizeof(*np);
 4dc:	e588a00c 	str	sl, [r8, #12]
 4e0:	e5883010 	str	r3, [r8, #16]
		if (new_format) {
 4e4:	0a00000d 	beq	520 <unflatten_dt_node+0x4c0>
			/* rebuild full path for new format */
			if (dad && dad->parent) {
 4e8:	e3550000 	cmp	r5, #0
 4ec:	0a00001a 	beq	55c <unflatten_dt_node+0x4fc>
 4f0:	e5953020 	ldr	r3, [r5, #32]
 4f4:	e3530000 	cmp	r3, #0
 4f8:	0a000017 	beq	55c <unflatten_dt_node+0x4fc>
				strcpy(fn, dad->full_name);
 4fc:	e595100c 	ldr	r1, [r5, #12]
 500:	e1a0000a 	mov	r0, sl
 504:	ebfffffe 	bl	0 <strcpy>
					pr_debug("%s: p: %d, l: %d, a: %d\n",
						pathp, (int)strlen(fn),
						l, allocl);
				}
#endif
				fn += strlen(fn);
 508:	e1a0000a 	mov	r0, sl
 50c:	ebfffffe 	bl	0 <strlen>
 510:	e08a0000 	add	r0, sl, r0
			}
			*(fn++) = '/';
 514:	e280a001 	add	sl, r0, #1
 518:	e3a0302f 	mov	r3, #47	; 0x2f
 51c:	e5c03000 	strb	r3, [r0]
		}
		memcpy(fn, pathp, l);
 520:	e1a0000a 	mov	r0, sl
 524:	e51b2038 	ldr	r2, [fp, #-56]	; 0xffffffc8
 528:	e51b1060 	ldr	r1, [fp, #-96]	; 0xffffffa0

		prev_pp = &np->properties;
 52c:	e2883018 	add	r3, r8, #24
 530:	e50b3044 	str	r3, [fp, #-68]	; 0xffffffbc
#endif
				fn += strlen(fn);
			}
			*(fn++) = '/';
		}
		memcpy(fn, pathp, l);
 534:	ebfffffe 	bl	0 <memcpy>

		prev_pp = &np->properties;
		if (dad != NULL) {
 538:	e3550000 	cmp	r5, #0
			np->parent = dad;
 53c:	15885020 	strne	r5, [r8, #32]
			np->sibling = dad->child;
 540:	15953024 	ldrne	r3, [r5, #36]	; 0x24
 544:	15883028 	strne	r3, [r8, #40]	; 0x28
			dad->child = np;
 548:	15858024 	strne	r8, [r5, #36]	; 0x24
 54c:	eafffef2 	b	11c <unflatten_dt_node+0xbc>
	int has_name = 0;
	int new_format = 0;

	pathp = fdt_get_name(blob, *poffset, &l);
	if (!pathp)
		return mem;
 550:	e1a00008 	mov	r0, r8

	if (nodepp)
		*nodepp = np;

	return mem;
}
 554:	e24bd028 	sub	sp, fp, #40	; 0x28
 558:	e89daff0 	ldm	sp, {r4, r5, r6, r7, r8, r9, sl, fp, sp, pc}
	np = unflatten_dt_alloc(&mem, sizeof(struct device_node) + allocl,
				__alignof__(struct device_node));
	if (!dryrun) {
		char *fn;
		of_node_init(np);
		np->full_name = fn = ((char *)np) + sizeof(*np);
 55c:	e1a0000a 	mov	r0, sl
 560:	eaffffeb 	b	514 <unflatten_dt_node+0x4b4>
	 */
	if (!has_name) {
		const char *p1 = pathp, *ps = pathp, *pa = NULL;
		int sz;

		while (*p1) {
 564:	e1a0c002 	mov	ip, r2
 568:	e51b1060 	ldr	r1, [fp, #-96]	; 0xffffffa0
 56c:	eaffff95 	b	3c8 <unflatten_dt_node+0x368>
			offset = -FDT_ERR_INTERNAL;
			break;
		}

		if (pname == NULL) {
			pr_info("Can't find property name in list !\n");
 570:	e3000000 	movw	r0, #0
 574:	e3400000 	movt	r0, #0
 578:	e1a05007 	mov	r5, r7
 57c:	e51b804c 	ldr	r8, [fp, #-76]	; 0xffffffb4
 580:	ebfffffe 	bl	0 <printk>
			break;
 584:	eaffff36 	b	264 <unflatten_dt_node+0x204>
	while (*poffset > 0 && depth > old_depth)
		mem = unflatten_dt_node(blob, mem, poffset, np, NULL,
					fpsize, dryrun);

	if (*poffset < 0 && *poffset != -FDT_ERR_NOTFOUND)
		pr_err("unflatten: error %d processing FDT\n", *poffset);
 588:	e1a01000 	mov	r1, r0
 58c:	e3000000 	movw	r0, #0
 590:	e3400000 	movt	r0, #0
 594:	ebfffffe 	bl	0 <printk>
 598:	eaffff62 	b	328 <unflatten_dt_node+0x2c8>

0000059c <__unflatten_device_tree>:
 * for the resulting tree
 */
static void __unflatten_device_tree(const void *blob,
			     struct device_node **mynodes,
			     void * (*dt_alloc)(u64 size, u64 align))
{
 59c:	e1a0c00d 	mov	ip, sp
 5a0:	e92ddbf0 	push	{r4, r5, r6, r7, r8, r9, fp, ip, lr, pc}
 5a4:	e24cb004 	sub	fp, ip, #4
 5a8:	e24dd018 	sub	sp, sp, #24
 5ac:	e52de004 	push	{lr}		; (str lr, [sp, #-4]!)
 5b0:	ebfffffe 	bl	0 <__gnu_mcount_nc>
	int start;
	void *mem;

	pr_debug(" -> unflatten_device_tree()\n");

	if (!blob) {
 5b4:	e2508000 	subs	r8, r0, #0
 * for the resulting tree
 */
static void __unflatten_device_tree(const void *blob,
			     struct device_node **mynodes,
			     void * (*dt_alloc)(u64 size, u64 align))
{
 5b8:	e1a09001 	mov	r9, r1
 5bc:	e1a07002 	mov	r7, r2
	int start;
	void *mem;

	pr_debug(" -> unflatten_device_tree()\n");

	if (!blob) {
 5c0:	0a000029 	beq	66c <__unflatten_device_tree+0xd0>
	pr_debug("Unflattening device tree:\n");
	pr_debug("magic: %08x\n", fdt_magic(blob));
	pr_debug("size: %08x\n", fdt_totalsize(blob));
	pr_debug("version: %08x\n", fdt_version(blob));

	if (fdt_check_header(blob)) {
 5c4:	ebfffffe 	bl	0 <fdt_check_header>
 5c8:	e2505000 	subs	r5, r0, #0
 5cc:	1a00003c 	bne	6c4 <__unflatten_device_tree+0x128>
		pr_err("Invalid device tree blob header\n");
		return;
	}

	/* First pass, scan for size */
	start = 0;
 5d0:	e24b6024 	sub	r6, fp, #36	; 0x24
	size = (unsigned long)unflatten_dt_node(blob, NULL, &start, NULL, NULL, 0, true);
 5d4:	e3a01001 	mov	r1, #1
 5d8:	e1a03005 	mov	r3, r5
 5dc:	e58d1008 	str	r1, [sp, #8]
		pr_err("Invalid device tree blob header\n");
		return;
	}

	/* First pass, scan for size */
	start = 0;
 5e0:	e5265004 	str	r5, [r6, #-4]!
	size = (unsigned long)unflatten_dt_node(blob, NULL, &start, NULL, NULL, 0, true);
 5e4:	e1a01005 	mov	r1, r5
 5e8:	e1a02006 	mov	r2, r6
 5ec:	e58d5004 	str	r5, [sp, #4]
 5f0:	e58d5000 	str	r5, [sp]
 5f4:	e1a00008 	mov	r0, r8
 5f8:	ebfffe98 	bl	60 <unflatten_dt_node>
	size = ALIGN(size, 4);

	pr_debug("  size is %lx, allocating...\n", size);

	/* Allocate memory for the expanded device tree */
	mem = dt_alloc(size + 4, __alignof__(struct device_node));
 5fc:	e3a02004 	mov	r2, #4
 600:	e3a03000 	mov	r3, #0
 604:	e1a01005 	mov	r1, r5
	}

	/* First pass, scan for size */
	start = 0;
	size = (unsigned long)unflatten_dt_node(blob, NULL, &start, NULL, NULL, 0, true);
	size = ALIGN(size, 4);
 608:	e2800003 	add	r0, r0, #3
 60c:	e3c04003 	bic	r4, r0, #3

	pr_debug("  size is %lx, allocating...\n", size);

	/* Allocate memory for the expanded device tree */
	mem = dt_alloc(size + 4, __alignof__(struct device_node));
 610:	e2840004 	add	r0, r4, #4
 614:	e12fff37 	blx	r7
	memset(mem, 0, size);
 618:	e3540000 	cmp	r4, #0
	size = ALIGN(size, 4);

	pr_debug("  size is %lx, allocating...\n", size);

	/* Allocate memory for the expanded device tree */
	mem = dt_alloc(size + 4, __alignof__(struct device_node));
 61c:	e1a07000 	mov	r7, r0
	memset(mem, 0, size);
 620:	1a000013 	bne	674 <__unflatten_device_tree+0xd8>

	pr_debug("  unflattening %p...\n", mem);

	/* Second pass, do actual unflattening */
	start = 0;
	unflatten_dt_node(blob, mem, &start, NULL, mynodes, 0, false);
 624:	e1a02006 	mov	r2, r6
 628:	e1a00008 	mov	r0, r8

	/* Allocate memory for the expanded device tree */
	mem = dt_alloc(size + 4, __alignof__(struct device_node));
	memset(mem, 0, size);

	*(__be32 *)(mem + size) = cpu_to_be32(0xdeadbeef);
 62c:	e30a1dde 	movw	r1, #44510	; 0xadde

	pr_debug("  unflattening %p...\n", mem);

	/* Second pass, do actual unflattening */
	start = 0;
	unflatten_dt_node(blob, mem, &start, NULL, mynodes, 0, false);
 630:	e1a03004 	mov	r3, r4

	/* Allocate memory for the expanded device tree */
	mem = dt_alloc(size + 4, __alignof__(struct device_node));
	memset(mem, 0, size);

	*(__be32 *)(mem + size) = cpu_to_be32(0xdeadbeef);
 634:	e34e1fbe 	movt	r1, #61374	; 0xefbe
 638:	e5871000 	str	r1, [r7]

	pr_debug("  unflattening %p...\n", mem);

	/* Second pass, do actual unflattening */
	start = 0;
	unflatten_dt_node(blob, mem, &start, NULL, mynodes, 0, false);
 63c:	e1a01007 	mov	r1, r7
 640:	e58d4008 	str	r4, [sp, #8]
 644:	e58d4004 	str	r4, [sp, #4]
 648:	e58d9000 	str	r9, [sp]
	*(__be32 *)(mem + size) = cpu_to_be32(0xdeadbeef);

	pr_debug("  unflattening %p...\n", mem);

	/* Second pass, do actual unflattening */
	start = 0;
 64c:	e50b4028 	str	r4, [fp, #-40]	; 0xffffffd8
	unflatten_dt_node(blob, mem, &start, NULL, mynodes, 0, false);
 650:	ebfffe82 	bl	60 <unflatten_dt_node>
static inline __u32 __swab32p(const __u32 *p)
{
#ifdef __arch_swab32p
	return __arch_swab32p(p);
#else
	return __swab32(*p);
 654:	e5971000 	ldr	r1, [r7]
}

static inline __attribute_const__ __u32 __fswab32(__u32 val)
{
#ifdef __HAVE_BUILTIN_BSWAP32__
	return __builtin_bswap32(val);
 658:	e6bf1f31 	rev	r1, r1
	if (be32_to_cpup(mem + size) != 0xdeadbeef)
 65c:	e30b3eef 	movw	r3, #48879	; 0xbeef
 660:	e34d3ead 	movt	r3, #57005	; 0xdead
 664:	e1510003 	cmp	r1, r3
 668:	1a000011 	bne	6b4 <__unflatten_device_tree+0x118>
		pr_warning("End of tree marker overwritten: %08x\n",
			   be32_to_cpup(mem + size));

	pr_debug(" <- unflatten_device_tree()\n");
}
 66c:	e24bd024 	sub	sp, fp, #36	; 0x24
 670:	e89dabf0 	ldm	sp, {r4, r5, r6, r7, r8, r9, fp, sp, pc}

	pr_debug("  size is %lx, allocating...\n", size);

	/* Allocate memory for the expanded device tree */
	mem = dt_alloc(size + 4, __alignof__(struct device_node));
	memset(mem, 0, size);
 674:	e1a01004 	mov	r1, r4
 678:	ebfffffe 	bl	0 <__memzero>

	pr_debug("  unflattening %p...\n", mem);

	/* Second pass, do actual unflattening */
	start = 0;
	unflatten_dt_node(blob, mem, &start, NULL, mynodes, 0, false);
 67c:	e1a02006 	mov	r2, r6
 680:	e1a00008 	mov	r0, r8

	/* Allocate memory for the expanded device tree */
	mem = dt_alloc(size + 4, __alignof__(struct device_node));
	memset(mem, 0, size);

	*(__be32 *)(mem + size) = cpu_to_be32(0xdeadbeef);
 684:	e30a1dde 	movw	r1, #44510	; 0xadde

	pr_debug("  unflattening %p...\n", mem);

	/* Second pass, do actual unflattening */
	start = 0;
	unflatten_dt_node(blob, mem, &start, NULL, mynodes, 0, false);
 688:	e1a03005 	mov	r3, r5

	/* Allocate memory for the expanded device tree */
	mem = dt_alloc(size + 4, __alignof__(struct device_node));
	memset(mem, 0, size);

	*(__be32 *)(mem + size) = cpu_to_be32(0xdeadbeef);
 68c:	e34e1fbe 	movt	r1, #61374	; 0xefbe
 690:	e7871004 	str	r1, [r7, r4]

	pr_debug("  unflattening %p...\n", mem);

	/* Second pass, do actual unflattening */
	start = 0;
	unflatten_dt_node(blob, mem, &start, NULL, mynodes, 0, false);
 694:	e1a01007 	mov	r1, r7
	*(__be32 *)(mem + size) = cpu_to_be32(0xdeadbeef);

	pr_debug("  unflattening %p...\n", mem);

	/* Second pass, do actual unflattening */
	start = 0;
 698:	e50b5028 	str	r5, [fp, #-40]	; 0xffffffd8
	unflatten_dt_node(blob, mem, &start, NULL, mynodes, 0, false);
 69c:	e58d9000 	str	r9, [sp]
 6a0:	e58d5008 	str	r5, [sp, #8]
 6a4:	e58d5004 	str	r5, [sp, #4]
 6a8:	ebfffe6c 	bl	60 <unflatten_dt_node>
static inline __u32 __swab32p(const __u32 *p)
{
#ifdef __arch_swab32p
	return __arch_swab32p(p);
#else
	return __swab32(*p);
 6ac:	e7971004 	ldr	r1, [r7, r4]
 6b0:	eaffffe8 	b	658 <__unflatten_device_tree+0xbc>
	if (be32_to_cpup(mem + size) != 0xdeadbeef)
		pr_warning("End of tree marker overwritten: %08x\n",
 6b4:	e3000000 	movw	r0, #0
 6b8:	e3400000 	movt	r0, #0
 6bc:	ebfffffe 	bl	0 <printk>
 6c0:	eaffffe9 	b	66c <__unflatten_device_tree+0xd0>
	pr_debug("magic: %08x\n", fdt_magic(blob));
	pr_debug("size: %08x\n", fdt_totalsize(blob));
	pr_debug("version: %08x\n", fdt_version(blob));

	if (fdt_check_header(blob)) {
		pr_err("Invalid device tree blob header\n");
 6c4:	e3000000 	movw	r0, #0
 6c8:	e3400000 	movt	r0, #0
 6cc:	ebfffffe 	bl	0 <printk>
		return;
 6d0:	eaffffe5 	b	66c <__unflatten_device_tree+0xd0>

000006d4 <of_fdt_unflatten_tree>:
 * pointers of the nodes so the normal device-tree walking functions
 * can be used.
 */
void of_fdt_unflatten_tree(const unsigned long *blob,
			struct device_node **mynodes)
{
 6d4:	e1a0c00d 	mov	ip, sp
 6d8:	e92dd8f0 	push	{r4, r5, r6, r7, fp, ip, lr, pc}
 6dc:	e24cb004 	sub	fp, ip, #4
 6e0:	e52de004 	push	{lr}		; (str lr, [sp, #-4]!)
 6e4:	ebfffffe 	bl	0 <__gnu_mcount_nc>
	mutex_lock(&of_fdt_unflatten_mutex);
 6e8:	e59f402c 	ldr	r4, [pc, #44]	; 71c <of_fdt_unflatten_tree+0x48>
 * pointers of the nodes so the normal device-tree walking functions
 * can be used.
 */
void of_fdt_unflatten_tree(const unsigned long *blob,
			struct device_node **mynodes)
{
 6ec:	e1a05000 	mov	r5, r0
 6f0:	e1a06001 	mov	r6, r1
	mutex_lock(&of_fdt_unflatten_mutex);
 6f4:	e1a00004 	mov	r0, r4
 6f8:	ebfffffe 	bl	0 <mutex_lock>
	__unflatten_device_tree(blob, mynodes, &kernel_tree_alloc);
 6fc:	e1a00005 	mov	r0, r5
 700:	e1a01006 	mov	r1, r6
 704:	e3002000 	movw	r2, #0
 708:	e3402000 	movt	r2, #0
 70c:	ebffffa2 	bl	59c <__unflatten_device_tree>
	mutex_unlock(&of_fdt_unflatten_mutex);
 710:	e1a00004 	mov	r0, r4
 714:	ebfffffe 	bl	0 <mutex_unlock>
 718:	e89da8f0 	ldm	sp, {r4, r5, r6, r7, fp, sp, pc}
 71c:	0000001c 	andeq	r0, r0, ip, lsl r0

00000720 <of_fdt_limit_memory>:
 * Adjust the flattened device tree to have at most 'limit' number of
 * memory entries in the /memory node. This function may be called
 * any time after initial_boot_param is set.
 */
void of_fdt_limit_memory(int limit)
{
 720:	e1a0c00d 	mov	ip, sp
 724:	e92dd8f0 	push	{r4, r5, r6, r7, fp, ip, lr, pc}
 728:	e24cb004 	sub	fp, ip, #4
 72c:	e24dd010 	sub	sp, sp, #16
 730:	e52de004 	push	{lr}		; (str lr, [sp, #-4]!)
 734:	ebfffffe 	bl	0 <__gnu_mcount_nc>
	const uint32_t *addr_prop;
	const uint32_t *size_prop;
	int root_offset;
	int cell_size;

	root_offset = fdt_path_offset(initial_boot_params, "/");
 738:	e3004000 	movw	r4, #0
 73c:	e3404000 	movt	r4, #0
 * Adjust the flattened device tree to have at most 'limit' number of
 * memory entries in the /memory node. This function may be called
 * any time after initial_boot_param is set.
 */
void of_fdt_limit_memory(int limit)
{
 740:	e1a07000 	mov	r7, r0
	const uint32_t *addr_prop;
	const uint32_t *size_prop;
	int root_offset;
	int cell_size;

	root_offset = fdt_path_offset(initial_boot_params, "/");
 744:	e3001000 	movw	r1, #0
 748:	e5940000 	ldr	r0, [r4]
 74c:	e3401000 	movt	r1, #0
 750:	ebfffffe 	bl	0 <fdt_path_offset>
	if (root_offset < 0)
 754:	e2506000 	subs	r6, r0, #0
 758:	ba000027 	blt	7fc <of_fdt_limit_memory+0xdc>
		return;

	addr_prop = fdt_getprop(initial_boot_params, root_offset,
 75c:	e3a03000 	mov	r3, #0
 760:	e3002000 	movw	r2, #0
 764:	e1a01006 	mov	r1, r6
 768:	e3402000 	movt	r2, #0
 76c:	e5940000 	ldr	r0, [r4]
 770:	ebfffffe 	bl	0 <fdt_getprop>
				"#address-cells", NULL);
	if (addr_prop)
 774:	e2503000 	subs	r3, r0, #0
 778:	0a00002c 	beq	830 <of_fdt_limit_memory+0x110>
}

static inline __attribute_const__ __u32 __fswab32(__u32 val)
{
#ifdef __HAVE_BUILTIN_BSWAP32__
	return __builtin_bswap32(val);
 77c:	e593c000 	ldr	ip, [r3]
		nr_address_cells = fdt32_to_cpu(*addr_prop);

	size_prop = fdt_getprop(initial_boot_params, root_offset,
 780:	e1a01006 	mov	r1, r6
 784:	e3002000 	movw	r2, #0
 788:	e3a03000 	mov	r3, #0
 78c:	e3402000 	movt	r2, #0
 790:	e5940000 	ldr	r0, [r4]
 794:	e6bf5f3c 	rev	r5, ip
 798:	ebfffffe 	bl	0 <fdt_getprop>
				"#size-cells", NULL);
	if (size_prop)
 79c:	e3500000 	cmp	r0, #0
 7a0:	0285c001 	addeq	ip, r5, #1
 7a4:	01a0510c 	lsleq	r5, ip, #2
 7a8:	0a000003 	beq	7bc <of_fdt_limit_memory+0x9c>
		nr_size_cells = fdt32_to_cpu(*size_prop);
 7ac:	e5903000 	ldr	r3, [r0]
 7b0:	e6bfcf33 	rev	ip, r3
 7b4:	e08cc005 	add	ip, ip, r5
 7b8:	e1a0510c 	lsl	r5, ip, #2

	cell_size = sizeof(uint32_t)*(nr_address_cells + nr_size_cells);

	memory = fdt_path_offset(initial_boot_params, "/memory");
 7bc:	e3001000 	movw	r1, #0
 7c0:	e5940000 	ldr	r0, [r4]
 7c4:	e3401000 	movt	r1, #0
 7c8:	ebfffffe 	bl	0 <fdt_path_offset>
	if (memory > 0) {
 7cc:	e2506000 	subs	r6, r0, #0
 7d0:	da000009 	ble	7fc <of_fdt_limit_memory+0xdc>
		val = fdt_getprop(initial_boot_params, memory, "reg", &len);
 7d4:	e3002000 	movw	r2, #0
 7d8:	e24b3020 	sub	r3, fp, #32
 7dc:	e3402000 	movt	r2, #0
 7e0:	e1a01006 	mov	r1, r6
 7e4:	e5940000 	ldr	r0, [r4]
 7e8:	ebfffffe 	bl	0 <fdt_getprop>
		if (len > limit*cell_size) {
 7ec:	e00c0795 	mul	ip, r5, r7
 7f0:	e51b2020 	ldr	r2, [fp, #-32]	; 0xffffffe0
 7f4:	e15c0002 	cmp	ip, r2
 7f8:	ba000001 	blt	804 <of_fdt_limit_memory+0xe4>
			pr_debug("Limiting number of entries to %d\n", limit);
			fdt_setprop(initial_boot_params, memory, "reg", val,
					len);
		}
	}
}
 7fc:	e24bd01c 	sub	sp, fp, #28
 800:	e89da8f0 	ldm	sp, {r4, r5, r6, r7, fp, sp, pc}
	if (memory > 0) {
		val = fdt_getprop(initial_boot_params, memory, "reg", &len);
		if (len > limit*cell_size) {
			len = limit*cell_size;
			pr_debug("Limiting number of entries to %d\n", limit);
			fdt_setprop(initial_boot_params, memory, "reg", val,
 804:	e594e000 	ldr	lr, [r4]
 808:	e1a03000 	mov	r3, r0
 80c:	e58dc000 	str	ip, [sp]
 810:	e1a01006 	mov	r1, r6
 814:	e3002000 	movw	r2, #0
 818:	e3402000 	movt	r2, #0
 81c:	e1a0000e 	mov	r0, lr

	memory = fdt_path_offset(initial_boot_params, "/memory");
	if (memory > 0) {
		val = fdt_getprop(initial_boot_params, memory, "reg", &len);
		if (len > limit*cell_size) {
			len = limit*cell_size;
 820:	e50bc020 	str	ip, [fp, #-32]	; 0xffffffe0
			pr_debug("Limiting number of entries to %d\n", limit);
			fdt_setprop(initial_boot_params, memory, "reg", val,
 824:	ebfffffe 	bl	0 <fdt_setprop>
					len);
		}
	}
}
 828:	e24bd01c 	sub	sp, fp, #28
 82c:	e89da8f0 	ldm	sp, {r4, r5, r6, r7, fp, sp, pc}
	addr_prop = fdt_getprop(initial_boot_params, root_offset,
				"#address-cells", NULL);
	if (addr_prop)
		nr_address_cells = fdt32_to_cpu(*addr_prop);

	size_prop = fdt_getprop(initial_boot_params, root_offset,
 830:	e1a01006 	mov	r1, r6
 834:	e3002000 	movw	r2, #0
 838:	e5940000 	ldr	r0, [r4]
 83c:	e3402000 	movt	r2, #0
 840:	ebfffffe 	bl	0 <fdt_getprop>
				"#size-cells", NULL);
	if (size_prop)
 844:	e3500000 	cmp	r0, #0
 848:	03a05008 	moveq	r5, #8
 84c:	0affffda 	beq	7bc <of_fdt_limit_memory+0x9c>
		nr_size_cells = fdt32_to_cpu(*size_prop);
 850:	e5903000 	ldr	r3, [r0]
void of_fdt_limit_memory(int limit)
{
	int memory;
	int len;
	const void *val;
	int nr_address_cells = OF_ROOT_NODE_ADDR_CELLS_DEFAULT;
 854:	e3a05001 	mov	r5, #1
 858:	eaffffd4 	b	7b0 <of_fdt_limit_memory+0x90>

0000085c <of_fdt_is_compatible>:
 * On match, returns a non-zero value with smaller values returned for more
 * specific compatible values.
 */
int of_fdt_is_compatible(const void *blob,
		      unsigned long node, const char *compat)
{
 85c:	e1a0c00d 	mov	ip, sp
 860:	e92dd8f0 	push	{r4, r5, r6, r7, fp, ip, lr, pc}
 864:	e24cb004 	sub	fp, ip, #4
 868:	e24dd008 	sub	sp, sp, #8
 86c:	e52de004 	push	{lr}		; (str lr, [sp, #-4]!)
 870:	ebfffffe 	bl	0 <__gnu_mcount_nc>
 874:	e1a07002 	mov	r7, r2
	const char *cp;
	int cplen;
	unsigned long l, score = 0;

	cp = fdt_getprop(blob, node, "compatible", &cplen);
 878:	e24b3020 	sub	r3, fp, #32
 87c:	e3002000 	movw	r2, #0
 880:	e3402000 	movt	r2, #0
 884:	ebfffffe 	bl	0 <fdt_getprop>
	if (cp == NULL)
 888:	e2504000 	subs	r4, r0, #0
 88c:	0a000015 	beq	8e8 <of_fdt_is_compatible+0x8c>
		return 0;
	while (cplen > 0) {
 890:	e51b5020 	ldr	r5, [fp, #-32]	; 0xffffffe0
 894:	e3550000 	cmp	r5, #0
 898:	da000012 	ble	8e8 <of_fdt_is_compatible+0x8c>
 89c:	e3a06000 	mov	r6, #0
 8a0:	ea000006 	b	8c0 <of_fdt_is_compatible+0x64>
		score++;
		if (of_compat_cmp(cp, compat, strlen(compat)) == 0)
			return score;
		l = strlen(cp) + 1;
 8a4:	ebfffffe 	bl	0 <strlen>
 8a8:	e2800001 	add	r0, r0, #1
		cp += l;
		cplen -= l;
 8ac:	e0455000 	sub	r5, r5, r0
	while (cplen > 0) {
		score++;
		if (of_compat_cmp(cp, compat, strlen(compat)) == 0)
			return score;
		l = strlen(cp) + 1;
		cp += l;
 8b0:	e0844000 	add	r4, r4, r0
	unsigned long l, score = 0;

	cp = fdt_getprop(blob, node, "compatible", &cplen);
	if (cp == NULL)
		return 0;
	while (cplen > 0) {
 8b4:	e3550000 	cmp	r5, #0
		score++;
		if (of_compat_cmp(cp, compat, strlen(compat)) == 0)
			return score;
		l = strlen(cp) + 1;
		cp += l;
		cplen -= l;
 8b8:	e50b5020 	str	r5, [fp, #-32]	; 0xffffffe0
	unsigned long l, score = 0;

	cp = fdt_getprop(blob, node, "compatible", &cplen);
	if (cp == NULL)
		return 0;
	while (cplen > 0) {
 8bc:	da000009 	ble	8e8 <of_fdt_is_compatible+0x8c>
		score++;
		if (of_compat_cmp(cp, compat, strlen(compat)) == 0)
 8c0:	e1a01007 	mov	r1, r7
 8c4:	e1a00004 	mov	r0, r4
 8c8:	ebfffffe 	bl	0 <strcasecmp>

	cp = fdt_getprop(blob, node, "compatible", &cplen);
	if (cp == NULL)
		return 0;
	while (cplen > 0) {
		score++;
 8cc:	e2866001 	add	r6, r6, #1
		if (of_compat_cmp(cp, compat, strlen(compat)) == 0)
 8d0:	e3500000 	cmp	r0, #0
			return score;
		l = strlen(cp) + 1;
 8d4:	e1a00004 	mov	r0, r4
	cp = fdt_getprop(blob, node, "compatible", &cplen);
	if (cp == NULL)
		return 0;
	while (cplen > 0) {
		score++;
		if (of_compat_cmp(cp, compat, strlen(compat)) == 0)
 8d8:	1afffff1 	bne	8a4 <of_fdt_is_compatible+0x48>
			return score;
 8dc:	e1a00006 	mov	r0, r6
		cp += l;
		cplen -= l;
	}

	return 0;
}
 8e0:	e24bd01c 	sub	sp, fp, #28
 8e4:	e89da8f0 	ldm	sp, {r4, r5, r6, r7, fp, sp, pc}
	int cplen;
	unsigned long l, score = 0;

	cp = fdt_getprop(blob, node, "compatible", &cplen);
	if (cp == NULL)
		return 0;
 8e8:	e3a00000 	mov	r0, #0
		cp += l;
		cplen -= l;
	}

	return 0;
}
 8ec:	e24bd01c 	sub	sp, fp, #28
 8f0:	e89da8f0 	ldm	sp, {r4, r5, r6, r7, fp, sp, pc}

000008f4 <of_fdt_is_big_endian>:
 * Returns true if the node has a "big-endian" property, or if the kernel
 * was compiled for BE *and* the node has a "native-endian" property.
 * Returns false otherwise.
 */
bool of_fdt_is_big_endian(const void *blob, unsigned long node)
{
 8f4:	e1a0c00d 	mov	ip, sp
 8f8:	e92dd800 	push	{fp, ip, lr, pc}
 8fc:	e24cb004 	sub	fp, ip, #4
 900:	e52de004 	push	{lr}		; (str lr, [sp, #-4]!)
 904:	ebfffffe 	bl	0 <__gnu_mcount_nc>
	if (fdt_getprop(blob, node, "big-endian", NULL))
 908:	e3a03000 	mov	r3, #0
 90c:	e3002000 	movw	r2, #0
 910:	e3402000 	movt	r2, #0
 914:	ebfffffe 	bl	0 <fdt_getprop>
		return true;
	if (IS_ENABLED(CONFIG_CPU_BIG_ENDIAN) &&
	    fdt_getprop(blob, node, "native-endian", NULL))
		return true;
	return false;
}
 918:	e2900000 	adds	r0, r0, #0
 91c:	13a00001 	movne	r0, #1
 920:	e89da800 	ldm	sp, {fp, sp, pc}

00000924 <of_fdt_match>:
/**
 * of_fdt_match - Return true if node matches a list of compatible values
 */
int of_fdt_match(const void *blob, unsigned long node,
                 const char *const *compat)
{
 924:	e1a0c00d 	mov	ip, sp
 928:	e92dd8f0 	push	{r4, r5, r6, r7, fp, ip, lr, pc}
 92c:	e24cb004 	sub	fp, ip, #4
 930:	e52de004 	push	{lr}		; (str lr, [sp, #-4]!)
 934:	ebfffffe 	bl	0 <__gnu_mcount_nc>
	unsigned int tmp, score = 0;

	if (!compat)
 938:	e2525000 	subs	r5, r2, #0
/**
 * of_fdt_match - Return true if node matches a list of compatible values
 */
int of_fdt_match(const void *blob, unsigned long node,
                 const char *const *compat)
{
 93c:	e1a06000 	mov	r6, r0
 940:	e1a07001 	mov	r7, r1
	unsigned int tmp, score = 0;

	if (!compat)
 944:	0a000014 	beq	99c <of_fdt_match+0x78>
		return 0;

	while (*compat) {
 948:	e5952000 	ldr	r2, [r5]
 94c:	e3520000 	cmp	r2, #0
 950:	0a000013 	beq	9a4 <of_fdt_match+0x80>
 954:	e3a04000 	mov	r4, #0
		tmp = of_fdt_is_compatible(blob, node, *compat);
 958:	e1a01007 	mov	r1, r7
 95c:	e1a00006 	mov	r0, r6
 960:	ebfffffe 	bl	85c <of_fdt_is_compatible>
		if (tmp && (score == 0 || (tmp < score)))
 964:	e3500000 	cmp	r0, #0
 968:	0a000006 	beq	988 <of_fdt_match+0x64>
 96c:	e1500004 	cmp	r0, r4
 970:	23a03000 	movcs	r3, #0
 974:	33a03001 	movcc	r3, #1
 978:	e3540000 	cmp	r4, #0
 97c:	03833001 	orreq	r3, r3, #1
 980:	e3530000 	cmp	r3, #0
 984:	11a04000 	movne	r4, r0
	unsigned int tmp, score = 0;

	if (!compat)
		return 0;

	while (*compat) {
 988:	e5b52004 	ldr	r2, [r5, #4]!
 98c:	e3520000 	cmp	r2, #0
 990:	1afffff0 	bne	958 <of_fdt_match+0x34>
 994:	e1a00004 	mov	r0, r4
 998:	e89da8f0 	ldm	sp, {r4, r5, r6, r7, fp, sp, pc}
                 const char *const *compat)
{
	unsigned int tmp, score = 0;

	if (!compat)
		return 0;
 99c:	e1a00005 	mov	r0, r5
			score = tmp;
		compat++;
	}

	return score;
}
 9a0:	e89da8f0 	ldm	sp, {r4, r5, r6, r7, fp, sp, pc}
	unsigned int tmp, score = 0;

	if (!compat)
		return 0;

	while (*compat) {
 9a4:	e1a00002 	mov	r0, r2
		if (tmp && (score == 0 || (tmp < score)))
			score = tmp;
		compat++;
	}

	return score;
 9a8:	e89da8f0 	ldm	sp, {r4, r5, r6, r7, fp, sp, pc}

Disassembly of section .init.text:

00000000 <setup_of_earlycon>:

	pr_debug(" <- unflatten_device_tree()\n");
}

static void *kernel_tree_alloc(u64 size, u64 align)
{
   0:	e1a0c00d 	mov	ip, sp
   4:	e92dd8f0 	push	{r4, r5, r6, r7, fp, ip, lr, pc}
   8:	e24cb004 	sub	fp, ip, #4
   c:	e24dd008 	sub	sp, sp, #8
  10:	e3500000 	cmp	r0, #0
  14:	13a06000 	movne	r6, #0
  18:	1a000047 	bne	13c <setup_of_earlycon+0x13c>
  1c:	e3003000 	movw	r3, #0
	return kzalloc(size, GFP_KERNEL);
}
  20:	e3403000 	movt	r3, #0

#ifdef CONFIG_SYSFS
static ssize_t of_fdt_raw_read(struct file *filp, struct kobject *kobj,
			       struct bin_attribute *bin_attr,
			       char *buf, loff_t off, size_t count)
{
  24:	e3001000 	movw	r1, #0
  28:	e3401000 	movt	r1, #0
  2c:	e5935000 	ldr	r5, [r3]
  30:	e1a00005 	mov	r0, r5
  34:	ebfffffe 	bl	0 <fdt_path_offset>
	memcpy(buf, initial_boot_params + off, count);
  38:	e2506000 	subs	r6, r0, #0
  3c:	aa000007 	bge	60 <setup_of_earlycon+0x60>
  40:	e3001000 	movw	r1, #0

#ifdef CONFIG_SYSFS
static ssize_t of_fdt_raw_read(struct file *filp, struct kobject *kobj,
			       struct bin_attribute *bin_attr,
			       char *buf, loff_t off, size_t count)
{
  44:	e1a00005 	mov	r0, r5
	memcpy(buf, initial_boot_params + off, count);
  48:	e3401000 	movt	r1, #0
  4c:	ebfffffe 	bl	0 <fdt_path_offset>
  50:	e2506000 	subs	r6, r0, #0
  54:	aa000001 	bge	60 <setup_of_earlycon+0x60>
	return count;
}
  58:	e3e06001 	mvn	r6, #1
  5c:	ea000036 	b	13c <setup_of_earlycon+0x13c>
				int *poffset,
				struct device_node *dad,
				struct device_node **nodepp,
				unsigned long fpsize,
				bool dryrun)
{
  60:	e3002000 	movw	r2, #0
  64:	e1a01006 	mov	r1, r6
  68:	e3402000 	movt	r2, #0
  6c:	e24b3020 	sub	r3, fp, #32
  70:	e1a00005 	mov	r0, r5
  74:	ebfffffe 	bl	0 <fdt_getprop>
  78:	e2504000 	subs	r4, r0, #0
  7c:	1a000007 	bne	a0 <setup_of_earlycon+0xa0>
  80:	e24b3020 	sub	r3, fp, #32
  84:	e1a01006 	mov	r1, r6
  88:	e3002000 	movw	r2, #0
	int old_depth;
	int offset;
	int has_name = 0;
	int new_format = 0;

	pathp = fdt_get_name(blob, *poffset, &l);
  8c:	e1a00005 	mov	r0, r5
  90:	e3402000 	movt	r2, #0
				int *poffset,
				struct device_node *dad,
				struct device_node **nodepp,
				unsigned long fpsize,
				bool dryrun)
{
  94:	ebfffffe 	bl	0 <fdt_getprop>
  98:	e2504000 	subs	r4, r0, #0
	int old_depth;
	int offset;
	int has_name = 0;
	int new_format = 0;

	pathp = fdt_get_name(blob, *poffset, &l);
  9c:	0affffed 	beq	58 <setup_of_earlycon+0x58>
	if (!pathp)
  a0:	e51b3020 	ldr	r3, [fp, #-32]	; 0xffffffe0
  a4:	e3530000 	cmp	r3, #0
  a8:	0affffea 	beq	58 <setup_of_earlycon+0x58>
  ac:	e1a00004 	mov	r0, r4
		return mem;

	allocl = ++l;
  b0:	e3a0103a 	mov	r1, #58	; 0x3a
  b4:	ebfffffe 	bl	0 <strchrnul>
  b8:	e1a01004 	mov	r1, r4
	/* version 0x10 has a more compact unit name here instead of the full
	 * path. we accumulate the full path size using "fpsize", we'll rebuild
	 * it later. We detect this because the first character of the name is
	 * not '/'.
	 */
	if ((*pathp) != '/') {
  bc:	e0402004 	sub	r2, r0, r4
  c0:	e1a00005 	mov	r0, r5
  c4:	e50b2020 	str	r2, [fp, #-32]	; 0xffffffe0
	unsigned int l, allocl;
	static int depth;
	int old_depth;
	int offset;
	int has_name = 0;
	int new_format = 0;
  c8:	ebfffffe 	bl	0 <fdt_path_offset_namelen>
	/* version 0x10 has a more compact unit name here instead of the full
	 * path. we accumulate the full path size using "fpsize", we'll rebuild
	 * it later. We detect this because the first character of the name is
	 * not '/'.
	 */
	if ((*pathp) != '/') {
  cc:	e2507000 	subs	r7, r0, #0
		new_format = 1;
		if (fpsize == 0) {
  d0:	a3004000 	movwge	r4, #0
  d4:	a3404000 	movtge	r4, #0
  d8:	aa000005 	bge	f4 <setup_of_earlycon+0xf4>
			 * fpsize should be 2, but we want to avoid the first
			 * level nodes to have two '/' so we use fpsize 1 here
			 */
			fpsize = 1;
			allocl = 2;
			l = 1;
  dc:	e3e06012 	mvn	r6, #18
  e0:	ea000015 	b	13c <setup_of_earlycon+0x13c>
	 * path. we accumulate the full path size using "fpsize", we'll rebuild
	 * it later. We detect this because the first character of the name is
	 * not '/'.
	 */
	if ((*pathp) != '/') {
		new_format = 1;
  e4:	ebfffffe 	bl	0 <fdt_node_check_compatible>
			 * level nodes to have two '/' so we use fpsize 1 here
			 */
			fpsize = 1;
			allocl = 2;
			l = 1;
			pathp = "";
  e8:	e2506000 	subs	r6, r0, #0
			 * fpsize should be 2, but we want to avoid the first
			 * level nodes to have two '/' so we use fpsize 1 here
			 */
			fpsize = 1;
			allocl = 2;
			l = 1;
  ec:	0a000007 	beq	110 <setup_of_earlycon+0x110>
			pathp = "";
  f0:	e28440c4 	add	r4, r4, #196	; 0xc4
			/* root node: special case. fpsize accounts for path
			 * plus terminating zero. root node only has '/', so
			 * fpsize should be 2, but we want to avoid the first
			 * level nodes to have two '/' so we use fpsize 1 here
			 */
			fpsize = 1;
  f4:	e5d43040 	ldrb	r3, [r4, #64]	; 0x40
			allocl = 2;
			l = 1;
			pathp = "";
  f8:	e2842040 	add	r2, r4, #64	; 0x40
		}
	}

	np = unflatten_dt_alloc(&mem, sizeof(struct device_node) + allocl,
				__alignof__(struct device_node));
	if (!dryrun) {
  fc:	e1a01007 	mov	r1, r7
static void *unflatten_dt_alloc(void **mem, unsigned long size,
				       unsigned long align)
{
	void *res;

	*mem = PTR_ALIGN(*mem, align);
 100:	e1a00005 	mov	r0, r5
 104:	e3530000 	cmp	r3, #0
		}
	}

	np = unflatten_dt_alloc(&mem, sizeof(struct device_node) + allocl,
				__alignof__(struct device_node));
	if (!dryrun) {
 108:	1afffff5 	bne	e4 <setup_of_earlycon+0xe4>
{
	void *res;

	*mem = PTR_ALIGN(*mem, align);
	res = *mem;
	*mem += size;
 10c:	eafffff2 	b	dc <setup_of_earlycon+0xdc>
				unsigned long fpsize,
				bool dryrun)
{
	const __be32 *p;
	struct device_node *np;
	struct property *pp, **prev_pp = NULL;
 110:	e1a01007 	mov	r1, r7
 114:	e1a00005 	mov	r0, r5
		}
	}

	np = unflatten_dt_alloc(&mem, sizeof(struct device_node) + allocl,
				__alignof__(struct device_node));
	if (!dryrun) {
 118:	ebfffffe 	bl	0 <fdt_translate_address>
			np->sibling = dad->child;
			dad->child = np;
		}
	}
	/* process properties */
	for (offset = fdt_first_property_offset(blob, *poffset);
 11c:	e3e03000 	mvn	r3, #0
 120:	e3e02000 	mvn	r2, #0
 124:	e1510003 	cmp	r1, r3
 128:	01500002 	cmpeq	r0, r2
 12c:	03e06005 	mvneq	r6, #5
 130:	0a000001 	beq	13c <setup_of_earlycon+0x13c>

		if (pname == NULL) {
			pr_info("Can't find property name in list !\n");
			break;
		}
		if (strcmp(pname, "name") == 0)
 134:	e59410c0 	ldr	r1, [r4, #192]	; 0xc0
 138:	ebfffffe 	bl	0 <of_setup_earlycon>
 13c:	e1a00006 	mov	r0, r6
					np->phandle = be32_to_cpup(p);
			}
			/* And we process the "ibm,phandle" property
			 * used in pSeries dynamic device tree
			 * stuff */
			if (strcmp(pname, "ibm,phandle") == 0)
 140:	e24bd01c 	sub	sp, fp, #28
 144:	e89da8f0 	ldm	sp, {r4, r5, r6, r7, fp, sp, pc}

00000148 <early_init_dt_alloc_memory_arch>:
 148:	e1a0c00d 	mov	ip, sp
			np->sibling = dad->child;
			dad->child = np;
		}
	}
	/* process properties */
	for (offset = fdt_first_property_offset(blob, *poffset);
 14c:	e92dd800 	push	{fp, ip, lr, pc}
			/* We accept flattened tree phandles either in
			 * ePAPR-style "phandle" properties, or the
			 * legacy "linux,phandle" properties.  If both
			 * appear and have different values, things
			 * will get weird.  Don't do that. */
			if ((strcmp(pname, "phandle") == 0) ||
 150:	e24cb004 	sub	fp, ip, #4
			np->sibling = dad->child;
			dad->child = np;
		}
	}
	/* process properties */
	for (offset = fdt_first_property_offset(blob, *poffset);
 154:	ebfffffe 	bl	0 <memblock_alloc>
			/* We accept flattened tree phandles either in
			 * ePAPR-style "phandle" properties, or the
			 * legacy "linux,phandle" properties.  If both
			 * appear and have different values, things
			 * will get weird.  Don't do that. */
			if ((strcmp(pname, "phandle") == 0) ||
 158:	e2400481 	sub	r0, r0, #-2130706432	; 0x81000000
			np->sibling = dad->child;
			dad->child = np;
		}
	}
	/* process properties */
	for (offset = fdt_first_property_offset(blob, *poffset);
 15c:	e89da800 	ldm	sp, {fp, sp, pc}

00000160 <of_fdt_raw_init>:
			/* We accept flattened tree phandles either in
			 * ePAPR-style "phandle" properties, or the
			 * legacy "linux,phandle" properties.  If both
			 * appear and have different values, things
			 * will get weird.  Don't do that. */
			if ((strcmp(pname, "phandle") == 0) ||
 160:	e1a0c00d 	mov	ip, sp
			    (strcmp(pname, "linux,phandle") == 0)) {
 164:	e92dd830 	push	{r4, r5, fp, ip, lr, pc}
 168:	e24cb004 	sub	fp, ip, #4
 16c:	e3005000 	movw	r5, #0
 170:	e3405000 	movt	r5, #0
		if (!(p = fdt_getprop_by_offset(blob, offset, &pname, &sz))) {
			offset = -FDT_ERR_INTERNAL;
			break;
		}

		if (pname == NULL) {
 174:	e5951000 	ldr	r1, [r5]
 178:	e3510000 	cmp	r1, #0
 17c:	0a00000a 	beq	1ac <of_fdt_raw_init+0x4c>
			pr_info("Can't find property name in list !\n");
			break;
		}
		if (strcmp(pname, "name") == 0)
 180:	e5914004 	ldr	r4, [r1, #4]
 184:	e3e00000 	mvn	r0, #0
 188:	e6bf4f34 	rev	r4, r4
			has_name = 1;
		pp = unflatten_dt_alloc(&mem, sizeof(struct property),
					__alignof__(struct property));
		if (!dryrun) {
 18c:	e1a02004 	mov	r2, r4
static void *unflatten_dt_alloc(void **mem, unsigned long size,
				       unsigned long align)
{
	void *res;

	*mem = PTR_ALIGN(*mem, align);
 190:	ebfffffe 	bl	0 <crc32_be>
 194:	e5953008 	ldr	r3, [r5, #8]
	res = *mem;
	*mem += size;
 198:	e1500003 	cmp	r0, r3
		if (pname == NULL) {
			pr_info("Can't find property name in list !\n");
			break;
		}
		if (strcmp(pname, "name") == 0)
			has_name = 1;
 19c:	0a000004 	beq	1b4 <of_fdt_raw_init+0x54>
 1a0:	e3000000 	movw	r0, #0
		pp = unflatten_dt_alloc(&mem, sizeof(struct property),
					__alignof__(struct property));
		if (!dryrun) {
 1a4:	e3400000 	movt	r0, #0
 1a8:	ebfffffe 	bl	0 <printk>
			/* We accept flattened tree phandles either in
			 * ePAPR-style "phandle" properties, or the
			 * legacy "linux,phandle" properties.  If both
			 * appear and have different values, things
			 * will get weird.  Don't do that. */
			if ((strcmp(pname, "phandle") == 0) ||
 1ac:	e3a00000 	mov	r0, #0
 1b0:	e89da830 	ldm	sp, {r4, r5, fp, sp, pc}
 1b4:	e3003000 	movw	r3, #0
 1b8:	e3002000 	movw	r2, #0
 1bc:	e3403000 	movt	r3, #0
			    (strcmp(pname, "linux,phandle") == 0)) {
 1c0:	e3402000 	movt	r2, #0
 1c4:	e1a01003 	mov	r1, r3
 1c8:	e5920000 	ldr	r0, [r2]
			/* We accept flattened tree phandles either in
			 * ePAPR-style "phandle" properties, or the
			 * legacy "linux,phandle" properties.  If both
			 * appear and have different values, things
			 * will get weird.  Don't do that. */
			if ((strcmp(pname, "phandle") == 0) ||
 1cc:	e5834008 	str	r4, [r3, #8]
 1d0:	ebfffffe 	bl	0 <sysfs_create_bin_file>
			    (strcmp(pname, "linux,phandle") == 0)) {
				if (np->phandle == 0)
 1d4:	e89da830 	ldm	sp, {r4, r5, fp, sp, pc}

000001d8 <of_scan_flat_dt>:
 1d8:	e1a0c00d 	mov	ip, sp
 1dc:	e92ddbf0 	push	{r4, r5, r6, r7, r8, r9, fp, ip, lr, pc}
static inline __u32 __swab32p(const __u32 *p)
{
#ifdef __arch_swab32p
	return __arch_swab32p(p);
#else
	return __swab32(*p);
 1e0:	e24cb004 	sub	fp, ip, #4
					np->phandle = be32_to_cpup(p);
 1e4:	e24dd008 	sub	sp, sp, #8
}

static inline __attribute_const__ __u32 __fswab32(__u32 val)
{
#ifdef __HAVE_BUILTIN_BSWAP32__
	return __builtin_bswap32(val);
 1e8:	e3003000 	movw	r3, #0
 1ec:	e3403000 	movt	r3, #0
			}
			/* And we process the "ibm,phandle" property
			 * used in pSeries dynamic device tree
			 * stuff */
			if (strcmp(pname, "ibm,phandle") == 0)
 1f0:	e24b5024 	sub	r5, fp, #36	; 0x24
 1f4:	e3e02000 	mvn	r2, #0
 1f8:	e1a09000 	mov	r9, r0
 1fc:	e5937000 	ldr	r7, [r3]
 200:	e1a08001 	mov	r8, r1
				np->phandle = be32_to_cpup(p);
 204:	e5252004 	str	r2, [r5, #-4]!
 208:	e1a01002 	mov	r1, r2
 20c:	e1a02005 	mov	r2, r5
			pp->name = (char *)pname;
			pp->length = sz;
			pp->value = (__be32 *)p;
			*prev_pp = pp;
 210:	e3a06000 	mov	r6, #0
			 * used in pSeries dynamic device tree
			 * stuff */
			if (strcmp(pname, "ibm,phandle") == 0)
				np->phandle = be32_to_cpup(p);
			pp->name = (char *)pname;
			pp->length = sz;
 214:	e1a00007 	mov	r0, r7
			/* And we process the "ibm,phandle" property
			 * used in pSeries dynamic device tree
			 * stuff */
			if (strcmp(pname, "ibm,phandle") == 0)
				np->phandle = be32_to_cpup(p);
			pp->name = (char *)pname;
 218:	ebfffffe 	bl	0 <fdt_next_node>
			pp->length = sz;
 21c:	e1a04000 	mov	r4, r0
			pp->value = (__be32 *)p;
			*prev_pp = pp;
 220:	e3a02000 	mov	r2, #0
			prev_pp = &pp->next;
 224:	e1540002 	cmp	r4, r2
 228:	e1a01004 	mov	r1, r4
		}
	}
	/* process properties */
	for (offset = fdt_first_property_offset(blob, *poffset);
	     (offset >= 0);
	     (offset = fdt_next_property_offset(blob, offset))) {
 22c:	e1a00007 	mov	r0, r7
 230:	ba000017 	blt	294 <of_scan_flat_dt+0xbc>
 234:	e51b3028 	ldr	r3, [fp, #-40]	; 0xffffffd8
			np->sibling = dad->child;
			dad->child = np;
		}
	}
	/* process properties */
	for (offset = fdt_first_property_offset(blob, *poffset);
 238:	e1530002 	cmp	r3, r2
 23c:	a1560002 	cmpge	r6, r2
	     (offset >= 0);
	     (offset = fdt_next_property_offset(blob, offset))) {
		const char *pname;
		u32 sz;

		if (!(p = fdt_getprop_by_offset(blob, offset, &pname, &sz))) {
 240:	1a000013 	bne	294 <of_scan_flat_dt+0xbc>
 244:	ebfffffe 	bl	0 <fdt_get_name>
 248:	e5d01000 	ldrb	r1, [r0]
 24c:	e1a06000 	mov	r6, r0
 250:	e351002f 	cmp	r1, #47	; 0x2f
 254:	1a000002 	bne	264 <of_scan_flat_dt+0x8c>
 258:	ebfffffe 	bl	0 <strrchr>
 25c:	e3500000 	cmp	r0, #0
 260:	12806001 	addne	r6, r0, #1
		}
	}
	/* with version 0x10 we may not have the name property, recreate
	 * it here from the unit name if absent
	 */
	if (!has_name) {
 264:	e1a01006 	mov	r1, r6
 268:	e1a03008 	mov	r3, r8
			((char *)pp->value)[sz - 1] = 0;
			pr_debug("fixed up name for %s -> %s\n", pathp,
				(char *)pp->value);
		}
	}
	if (!dryrun) {
 26c:	e51b2028 	ldr	r2, [fp, #-40]	; 0xffffffd8
 270:	e1a00004 	mov	r0, r4
 274:	e12fff39 	blx	r9
		if (!np->type)
			np->type = "<NULL>";
	}

	old_depth = depth;
	*poffset = fdt_next_node(blob, *poffset, &depth);
 278:	e1a01004 	mov	r1, r4
			np->name = "<NULL>";
		if (!np->type)
			np->type = "<NULL>";
	}

	old_depth = depth;
 27c:	e1a02005 	mov	r2, r5
 280:	e1a06000 	mov	r6, r0
	*poffset = fdt_next_node(blob, *poffset, &depth);
 284:	e1a00007 	mov	r0, r7
			np->name = "<NULL>";
		if (!np->type)
			np->type = "<NULL>";
	}

	old_depth = depth;
 288:	ebfffffe 	bl	0 <fdt_next_node>
	*poffset = fdt_next_node(blob, *poffset, &depth);
 28c:	e1a04000 	mov	r4, r0
			np->name = "<NULL>";
		if (!np->type)
			np->type = "<NULL>";
	}

	old_depth = depth;
 290:	eaffffe2 	b	220 <of_scan_flat_dt+0x48>
	*poffset = fdt_next_node(blob, *poffset, &depth);
 294:	e1a00006 	mov	r0, r6
 298:	e24bd024 	sub	sp, fp, #36	; 0x24
	if (depth < 0)
 29c:	e89dabf0 	ldm	sp, {r4, r5, r6, r7, r8, r9, fp, sp, pc}

000002a0 <of_get_flat_dt_root>:
 2a0:	e1a0c00d 	mov	ip, sp
		depth = 0;
 2a4:	e92dd800 	push	{fp, ip, lr, pc}
 2a8:	e24cb004 	sub	fp, ip, #4
 2ac:	e3a00000 	mov	r0, #0
 2b0:	e89da800 	ldm	sp, {fp, sp, pc}

000002b4 <of_get_flat_dt_size>:
	while (*poffset > 0 && depth > old_depth)
 2b4:	e1a0c00d 	mov	ip, sp
 2b8:	e92dd800 	push	{fp, ip, lr, pc}
 2bc:	e24cb004 	sub	fp, ip, #4
 2c0:	e3003000 	movw	r3, #0
 2c4:	e3403000 	movt	r3, #0
		mem = unflatten_dt_node(blob, mem, poffset, np, NULL,
 2c8:	e5933000 	ldr	r3, [r3]
 2cc:	e5930004 	ldr	r0, [r3, #4]
 2d0:	e6bf0f30 	rev	r0, r0
 2d4:	e89da800 	ldm	sp, {fp, sp, pc}

000002d8 <of_get_flat_dt_prop>:
 2d8:	e1a0c00d 	mov	ip, sp
 2dc:	e92dd800 	push	{fp, ip, lr, pc}

	old_depth = depth;
	*poffset = fdt_next_node(blob, *poffset, &depth);
	if (depth < 0)
		depth = 0;
	while (*poffset > 0 && depth > old_depth)
 2e0:	e24cb004 	sub	fp, ip, #4
 2e4:	e300c000 	movw	ip, #0
 2e8:	e340c000 	movt	ip, #0
		mem = unflatten_dt_node(blob, mem, poffset, np, NULL,
 2ec:	e1a03002 	mov	r3, r2
 2f0:	e1a02001 	mov	r2, r1
 2f4:	e1a01000 	mov	r1, r0
 2f8:	e59c0000 	ldr	r0, [ip]
 2fc:	ebfffffe 	bl	0 <fdt_getprop>
 300:	e89da800 	ldm	sp, {fp, sp, pc}

00000304 <early_init_dt_scan_root>:
 304:	e1a0c00d 	mov	ip, sp
 308:	e92dd830 	push	{r4, r5, fp, ip, lr, pc}
 30c:	e24cb004 	sub	fp, ip, #4

	old_depth = depth;
	*poffset = fdt_next_node(blob, *poffset, &depth);
	if (depth < 0)
		depth = 0;
	while (*poffset > 0 && depth > old_depth)
 310:	e3520000 	cmp	r2, #0
 314:	e1a05000 	mov	r5, r0
 318:	1a000017 	bne	37c <early_init_dt_scan_root+0x78>
 31c:	e3004000 	movw	r4, #0
		mem = unflatten_dt_node(blob, mem, poffset, np, NULL,
					fpsize, dryrun);

	if (*poffset < 0 && *poffset != -FDT_ERR_NOTFOUND)
 320:	e3404000 	movt	r4, #0
 324:	e3001000 	movw	r1, #0

	/*
	 * Reverse the child list. Some drivers assumes node order matches .dts
	 * node order
	 */
	if (!dryrun && np->child) {
 328:	e3401000 	movt	r1, #0
 32c:	e3a03001 	mov	r3, #1
 330:	e5843000 	str	r3, [r4]
 334:	e5843004 	str	r3, [r4, #4]
 338:	ebfffffe 	bl	2d8 <of_get_flat_dt_prop>
 33c:	e3001000 	movw	r1, #0
		struct device_node *child = np->child;
		np->child = NULL;
 340:	e3a02000 	mov	r2, #0
 344:	e3401000 	movt	r1, #0
 348:	e3500000 	cmp	r0, #0
		while (child) {
			struct device_node *next = child->sibling;
 34c:	15903000 	ldrne	r3, [r0]
			child->sibling = np->child;
 350:	e1a00005 	mov	r0, r5
 354:	16bf3f33 	revne	r3, r3
	 * node order
	 */
	if (!dryrun && np->child) {
		struct device_node *child = np->child;
		np->child = NULL;
		while (child) {
 358:	15843000 	strne	r3, [r4]
			struct device_node *next = child->sibling;
			child->sibling = np->child;
			np->child = child;
 35c:	ebfffffe 	bl	2d8 <of_get_flat_dt_prop>
 360:	e3500000 	cmp	r0, #0
	 * node order
	 */
	if (!dryrun && np->child) {
		struct device_node *child = np->child;
		np->child = NULL;
		while (child) {
 364:	0a000006 	beq	384 <early_init_dt_scan_root+0x80>
			np->child = child;
			child = next;
		}
	}

	if (nodepp)
 368:	e5903000 	ldr	r3, [r0]
		*nodepp = np;
 36c:	e3a00001 	mov	r0, #1
			np->child = child;
			child = next;
		}
	}

	if (nodepp)
 370:	e6bf3f33 	rev	r3, r3
		*nodepp = np;
 374:	e5843004 	str	r3, [r4, #4]
 378:	e89da830 	ldm	sp, {r4, r5, fp, sp, pc}

	return mem;
}
 37c:	e3a00000 	mov	r0, #0
 380:	e89da830 	ldm	sp, {r4, r5, fp, sp, pc}
	 */
	if (!has_name) {
		const char *p1 = pathp, *ps = pathp, *pa = NULL;
		int sz;

		while (*p1) {
 384:	e3a00001 	mov	r0, #1
 388:	e89da830 	ldm	sp, {r4, r5, fp, sp, pc}

0000038c <early_init_dt_scan_chosen>:
 38c:	e1a0c00d 	mov	ip, sp
 390:	e92ddbf0 	push	{r4, r5, r6, r7, r8, r9, fp, ip, lr, pc}
 394:	e24cb004 	sub	fp, ip, #4
 398:	e24dd010 	sub	sp, sp, #16
			if ((*p1) == '@')
 39c:	e16f4f13 	clz	r4, r3
 3a0:	e1a09000 	mov	r9, r0
				pa = p1;
			if ((*p1) == '/')
 3a4:	e1a05001 	mov	r5, r1
	if (!has_name) {
		const char *p1 = pathp, *ps = pathp, *pa = NULL;
		int sz;

		while (*p1) {
			if ((*p1) == '@')
 3a8:	e1a042a4 	lsr	r4, r4, #5
 3ac:	e1a08003 	mov	r8, r3
				pa = p1;
			if ((*p1) == '/')
 3b0:	e3520001 	cmp	r2, #1
 3b4:	13844001 	orrne	r4, r4, #1
	 */
	if (!has_name) {
		const char *p1 = pathp, *ps = pathp, *pa = NULL;
		int sz;

		while (*p1) {
 3b8:	e3540000 	cmp	r4, #0
 3bc:	13a00000 	movne	r0, #0
 3c0:	1a00005b 	bne	534 <early_init_dt_scan_chosen+0x1a8>
 3c4:	e3001000 	movw	r1, #0
				pa = p1;
			if ((*p1) == '/')
				ps = p1 + 1;
			p1++;
		}
		if (pa < ps)
 3c8:	e1a00005 	mov	r0, r5
static void *unflatten_dt_alloc(void **mem, unsigned long size,
				       unsigned long align)
{
	void *res;

	*mem = PTR_ALIGN(*mem, align);
 3cc:	e3401000 	movt	r1, #0
 3d0:	ebfffffe 	bl	0 <strcmp>
				pa = p1;
			if ((*p1) == '/')
				ps = p1 + 1;
			p1++;
		}
		if (pa < ps)
 3d4:	e3500000 	cmp	r0, #0
 3d8:	0a000006 	beq	3f8 <early_init_dt_scan_chosen+0x6c>
			pa = p1;
		sz = (pa - ps) + 1;
 3dc:	e1a00005 	mov	r0, r5
		pp = unflatten_dt_alloc(&mem, sizeof(struct property) + sz,
					__alignof__(struct property));
		if (!dryrun) {
 3e0:	e3001000 	movw	r1, #0
{
	void *res;

	*mem = PTR_ALIGN(*mem, align);
	res = *mem;
	*mem += size;
 3e4:	e3401000 	movt	r1, #0
 3e8:	ebfffffe 	bl	0 <strcmp>
				ps = p1 + 1;
			p1++;
		}
		if (pa < ps)
			pa = p1;
		sz = (pa - ps) + 1;
 3ec:	e3500000 	cmp	r0, #0
		pp = unflatten_dt_alloc(&mem, sizeof(struct property) + sz,
					__alignof__(struct property));
		if (!dryrun) {
 3f0:	11a00004 	movne	r0, r4
 3f4:	1a00004e 	bne	534 <early_init_dt_scan_chosen+0x1a8>
			pp->name = "name";
 3f8:	e3001000 	movw	r1, #0
 3fc:	e1a00009 	mov	r0, r9
 400:	e3401000 	movt	r1, #0
			pp->length = sz;
			pp->value = pp + 1;
 404:	e24b2028 	sub	r2, fp, #40	; 0x28
 408:	ebfffffe 	bl	2d8 <of_get_flat_dt_prop>
			*prev_pp = pp;
 40c:	e3500000 	cmp	r0, #0
		sz = (pa - ps) + 1;
		pp = unflatten_dt_alloc(&mem, sizeof(struct property) + sz,
					__alignof__(struct property));
		if (!dryrun) {
			pp->name = "name";
			pp->length = sz;
 410:	0a000030 	beq	4d8 <early_init_dt_scan_chosen+0x14c>
			pp->value = pp + 1;
			*prev_pp = pp;
			prev_pp = &pp->next;
			memcpy(pp->value, ps, sz - 1);
 414:	e51b3028 	ldr	r3, [fp, #-40]	; 0xffffffd8
					__alignof__(struct property));
		if (!dryrun) {
			pp->name = "name";
			pp->length = sz;
			pp->value = pp + 1;
			*prev_pp = pp;
 418:	e3a04000 	mov	r4, #0
			prev_pp = &pp->next;
 41c:	e2832003 	add	r2, r3, #3
			memcpy(pp->value, ps, sz - 1);
 420:	e3530000 	cmp	r3, #0
		if (!dryrun) {
			pp->name = "name";
			pp->length = sz;
			pp->value = pp + 1;
			*prev_pp = pp;
			prev_pp = &pp->next;
 424:	b1a03002 	movlt	r3, r2
			memcpy(pp->value, ps, sz - 1);
 428:	e1a03143 	asr	r3, r3, #2
			((char *)pp->value)[sz - 1] = 0;
 42c:	e2433001 	sub	r3, r3, #1
 430:	e3a06000 	mov	r6, #0
 434:	e3730001 	cmn	r3, #1
 438:	14902004 	ldrne	r2, [r0], #4
			pr_debug("fixed up name for %s -> %s\n", pathp,
				(char *)pp->value);
		}
	}
	if (!dryrun) {
		*prev_pp = NULL;
 43c:	16bf2f32 	revne	r2, r2
 440:	11864002 	orrne	r4, r6, r2
		np->name = of_get_property(np, "name", NULL);
 444:	1afffff8 	bne	42c <early_init_dt_scan_chosen+0xa0>
 448:	e3001000 	movw	r1, #0
 44c:	e24b2028 	sub	r2, fp, #40	; 0x28
 450:	e3401000 	movt	r1, #0
			pr_debug("fixed up name for %s -> %s\n", pathp,
				(char *)pp->value);
		}
	}
	if (!dryrun) {
		*prev_pp = NULL;
 454:	e1a00009 	mov	r0, r9
		np->name = of_get_property(np, "name", NULL);
 458:	ebfffffe 	bl	2d8 <of_get_flat_dt_prop>
		np->type = of_get_property(np, "device_type", NULL);
 45c:	e3500000 	cmp	r0, #0
 460:	0a00001c 	beq	4d8 <early_init_dt_scan_chosen+0x14c>
 464:	e51b3028 	ldr	r3, [fp, #-40]	; 0xffffffd8
				(char *)pp->value);
		}
	}
	if (!dryrun) {
		*prev_pp = NULL;
		np->name = of_get_property(np, "name", NULL);
 468:	e3a06000 	mov	r6, #0
		np->type = of_get_property(np, "device_type", NULL);
 46c:	e2832003 	add	r2, r3, #3
 470:	e3530000 	cmp	r3, #0

		if (!np->name)
 474:	b1a03002 	movlt	r3, r2
 478:	e1a03143 	asr	r3, r3, #2
			np->name = "<NULL>";
 47c:	e2433001 	sub	r3, r3, #1
 480:	e3a02000 	mov	r2, #0
 484:	e3730001 	cmn	r3, #1
		if (!np->type)
 488:	e50b6030 	str	r6, [fp, #-48]	; 0xffffffd0
		}
	}
	if (!dryrun) {
		*prev_pp = NULL;
		np->name = of_get_property(np, "name", NULL);
		np->type = of_get_property(np, "device_type", NULL);
 48c:	e50b2034 	str	r2, [fp, #-52]	; 0xffffffcc

		if (!np->name)
			np->name = "<NULL>";
		if (!np->type)
			np->type = "<NULL>";
 490:	0a000004 	beq	4a8 <early_init_dt_scan_chosen+0x11c>
 494:	e4902004 	ldr	r2, [r0], #4
 498:	e14b63d4 	ldrd	r6, [fp, #-52]	; 0xffffffcc
 49c:	e6bf2f32 	rev	r2, r2
			pathp = "";
		} else {
			/* account for '/' and path size minus terminal 0
			 * already in 'l'
			 */
			fpsize += l;
 4a0:	e1866002 	orr	r6, r6, r2
	 * path. we accumulate the full path size using "fpsize", we'll rebuild
	 * it later. We detect this because the first character of the name is
	 * not '/'.
	 */
	if ((*pathp) != '/') {
		new_format = 1;
 4a4:	eafffff4 	b	47c <early_init_dt_scan_chosen+0xf0>
			pathp = "";
		} else {
			/* account for '/' and path size minus terminal 0
			 * already in 'l'
			 */
			fpsize += l;
 4a8:	e3001000 	movw	r1, #0
 4ac:	e3002000 	movw	r2, #0
 4b0:	e3401000 	movt	r1, #0
 4b4:	e3402000 	movt	r2, #0
 4b8:	e3003000 	movw	r3, #0
 4bc:	e3403000 	movt	r3, #0

/* initialize a node */
extern struct kobj_type of_node_ktype;
static inline void of_node_init(struct device_node *node)
{
	kobject_init(&node->kobj, &of_node_ktype);
 4c0:	e2444481 	sub	r4, r4, #-2130706432	; 0x81000000
 4c4:	e2466481 	sub	r6, r6, #-2130706432	; 0x81000000
 4c8:	e5814000 	str	r4, [r1]
	np = unflatten_dt_alloc(&mem, sizeof(struct device_node) + allocl,
				__alignof__(struct device_node));
	if (!dryrun) {
		char *fn;
		of_node_init(np);
		np->full_name = fn = ((char *)np) + sizeof(*np);
 4cc:	e3a01001 	mov	r1, #1
 4d0:	e5826000 	str	r6, [r2]
		if (new_format) {
 4d4:	e5831000 	str	r1, [r3]
	node->fwnode.type = FWNODE_OF;
 4d8:	e24b2028 	sub	r2, fp, #40	; 0x28
	np = unflatten_dt_alloc(&mem, sizeof(struct device_node) + allocl,
				__alignof__(struct device_node));
	if (!dryrun) {
		char *fn;
		of_node_init(np);
		np->full_name = fn = ((char *)np) + sizeof(*np);
 4dc:	e1a00009 	mov	r0, r9
 4e0:	e3001000 	movw	r1, #0
		if (new_format) {
 4e4:	e3401000 	movt	r1, #0
			/* rebuild full path for new format */
			if (dad && dad->parent) {
 4e8:	ebfffffe 	bl	2d8 <of_get_flat_dt_prop>
 4ec:	e2501000 	subs	r1, r0, #0
 4f0:	0a000006 	beq	510 <early_init_dt_scan_chosen+0x184>
 4f4:	e51b2028 	ldr	r2, [fp, #-40]	; 0xffffffd8
 4f8:	e3520000 	cmp	r2, #0
				strcpy(fn, dad->full_name);
 4fc:	da000003 	ble	510 <early_init_dt_scan_chosen+0x184>
 500:	e3520b01 	cmp	r2, #1024	; 0x400
 504:	e1a00008 	mov	r0, r8
					pr_debug("%s: p: %d, l: %d, a: %d\n",
						pathp, (int)strlen(fn),
						l, allocl);
				}
#endif
				fn += strlen(fn);
 508:	a3a02b01 	movge	r2, #1024	; 0x400
 50c:	ebfffffe 	bl	0 <strlcpy>
 510:	e5d83000 	ldrb	r3, [r8]
			}
			*(fn++) = '/';
 514:	e3530000 	cmp	r3, #0
 518:	1a000004 	bne	530 <early_init_dt_scan_chosen+0x1a4>
 51c:	e3001000 	movw	r1, #0
		}
		memcpy(fn, pathp, l);
 520:	e1a00008 	mov	r0, r8
 524:	e3a02b01 	mov	r2, #1024	; 0x400
 528:	e3401000 	movt	r1, #0

		prev_pp = &np->properties;
 52c:	ebfffffe 	bl	0 <strlcpy>
 530:	e3a00001 	mov	r0, #1
#endif
				fn += strlen(fn);
			}
			*(fn++) = '/';
		}
		memcpy(fn, pathp, l);
 534:	e24bd024 	sub	sp, fp, #36	; 0x24

		prev_pp = &np->properties;
		if (dad != NULL) {
 538:	e89dabf0 	ldm	sp, {r4, r5, r6, r7, r8, r9, fp, sp, pc}

0000053c <of_flat_dt_is_compatible>:
			np->parent = dad;
 53c:	e1a0c00d 	mov	ip, sp
			np->sibling = dad->child;
 540:	e92dd800 	push	{fp, ip, lr, pc}
 544:	e24cb004 	sub	fp, ip, #4
			dad->child = np;
 548:	e3003000 	movw	r3, #0
 54c:	e3403000 	movt	r3, #0
	int has_name = 0;
	int new_format = 0;

	pathp = fdt_get_name(blob, *poffset, &l);
	if (!pathp)
		return mem;
 550:	e1a02001 	mov	r2, r1

	if (nodepp)
		*nodepp = np;

	return mem;
}
 554:	e1a01000 	mov	r1, r0
 558:	e5930000 	ldr	r0, [r3]
	np = unflatten_dt_alloc(&mem, sizeof(struct device_node) + allocl,
				__alignof__(struct device_node));
	if (!dryrun) {
		char *fn;
		of_node_init(np);
		np->full_name = fn = ((char *)np) + sizeof(*np);
 55c:	ebfffffe 	bl	85c <early_init_dt_add_memory_arch+0x130>
 560:	e89da800 	ldm	sp, {fp, sp, pc}

00000564 <of_flat_dt_match>:
	 */
	if (!has_name) {
		const char *p1 = pathp, *ps = pathp, *pa = NULL;
		int sz;

		while (*p1) {
 564:	e1a0c00d 	mov	ip, sp
 568:	e92dd800 	push	{fp, ip, lr, pc}
 56c:	e24cb004 	sub	fp, ip, #4
			offset = -FDT_ERR_INTERNAL;
			break;
		}

		if (pname == NULL) {
			pr_info("Can't find property name in list !\n");
 570:	e3003000 	movw	r3, #0
 574:	e3403000 	movt	r3, #0
 578:	e1a02001 	mov	r2, r1
 57c:	e1a01000 	mov	r1, r0
 580:	e5930000 	ldr	r0, [r3]
			break;
 584:	ebfffffe 	bl	924 <early_init_dt_scan_memory+0x68>
	while (*poffset > 0 && depth > old_depth)
		mem = unflatten_dt_node(blob, mem, poffset, np, NULL,
					fpsize, dryrun);

	if (*poffset < 0 && *poffset != -FDT_ERR_NOTFOUND)
		pr_err("unflatten: error %d processing FDT\n", *poffset);
 588:	e89da800 	ldm	sp, {fp, sp, pc}

0000058c <of_flat_dt_get_machine_name>:
 58c:	e1a0c00d 	mov	ip, sp
 590:	e92dd800 	push	{fp, ip, lr, pc}
 594:	e24cb004 	sub	fp, ip, #4
 598:	e3a02000 	mov	r2, #0
 * for the resulting tree
 */
static void __unflatten_device_tree(const void *blob,
			     struct device_node **mynodes,
			     void * (*dt_alloc)(u64 size, u64 align))
{
 59c:	e3001000 	movw	r1, #0
 5a0:	e1a00002 	mov	r0, r2
 5a4:	e3401000 	movt	r1, #0
 5a8:	ebfffffe 	bl	2d8 <of_get_flat_dt_prop>
 5ac:	e2502000 	subs	r2, r0, #0
 5b0:	1a000003 	bne	5c4 <of_flat_dt_get_machine_name+0x38>
	int start;
	void *mem;

	pr_debug(" -> unflatten_device_tree()\n");

	if (!blob) {
 5b4:	e3001000 	movw	r1, #0
 * for the resulting tree
 */
static void __unflatten_device_tree(const void *blob,
			     struct device_node **mynodes,
			     void * (*dt_alloc)(u64 size, u64 align))
{
 5b8:	e3401000 	movt	r1, #0
 5bc:	ebfffffe 	bl	2d8 <of_get_flat_dt_prop>
	int start;
	void *mem;

	pr_debug(" -> unflatten_device_tree()\n");

	if (!blob) {
 5c0:	e1a02000 	mov	r2, r0
	pr_debug("Unflattening device tree:\n");
	pr_debug("magic: %08x\n", fdt_magic(blob));
	pr_debug("size: %08x\n", fdt_totalsize(blob));
	pr_debug("version: %08x\n", fdt_version(blob));

	if (fdt_check_header(blob)) {
 5c4:	e1a00002 	mov	r0, r2
 5c8:	e89da800 	ldm	sp, {fp, sp, pc}

000005cc <of_flat_dt_match_machine>:
 5cc:	e1a0c00d 	mov	ip, sp
		pr_err("Invalid device tree blob header\n");
		return;
	}

	/* First pass, scan for size */
	start = 0;
 5d0:	e92dd8f0 	push	{r4, r5, r6, r7, fp, ip, lr, pc}
	size = (unsigned long)unflatten_dt_node(blob, NULL, &start, NULL, NULL, 0, true);
 5d4:	e24cb004 	sub	fp, ip, #4
 5d8:	e24dd008 	sub	sp, sp, #8
 5dc:	e3e05001 	mvn	r5, #1
		pr_err("Invalid device tree blob header\n");
		return;
	}

	/* First pass, scan for size */
	start = 0;
 5e0:	e1a04000 	mov	r4, r0
	size = (unsigned long)unflatten_dt_node(blob, NULL, &start, NULL, NULL, 0, true);
 5e4:	e1a06001 	mov	r6, r1
 5e8:	e24b0024 	sub	r0, fp, #36	; 0x24
 5ec:	e12fff36 	blx	r6
 5f0:	e2507000 	subs	r7, r0, #0
 5f4:	0a00000b 	beq	628 <of_flat_dt_match_machine+0x5c>
 5f8:	e51b1024 	ldr	r1, [fp, #-36]	; 0xffffffdc
	size = ALIGN(size, 4);

	pr_debug("  size is %lx, allocating...\n", size);

	/* Allocate memory for the expanded device tree */
	mem = dt_alloc(size + 4, __alignof__(struct device_node));
 5fc:	e3a00000 	mov	r0, #0
 600:	ebfffffe 	bl	564 <of_flat_dt_match>
 604:	e3500000 	cmp	r0, #0
	}

	/* First pass, scan for size */
	start = 0;
	size = (unsigned long)unflatten_dt_node(blob, NULL, &start, NULL, NULL, 0, true);
	size = ALIGN(size, 4);
 608:	11550000 	cmpne	r5, r0
 60c:	e1a03000 	mov	r3, r0

	pr_debug("  size is %lx, allocating...\n", size);

	/* Allocate memory for the expanded device tree */
	mem = dt_alloc(size + 4, __alignof__(struct device_node));
 610:	83a00001 	movhi	r0, #1
 614:	93a00000 	movls	r0, #0
	memset(mem, 0, size);
 618:	e3500000 	cmp	r0, #0
	size = ALIGN(size, 4);

	pr_debug("  size is %lx, allocating...\n", size);

	/* Allocate memory for the expanded device tree */
	mem = dt_alloc(size + 4, __alignof__(struct device_node));
 61c:	11a05003 	movne	r5, r3
	memset(mem, 0, size);
 620:	11a04007 	movne	r4, r7

	pr_debug("  unflattening %p...\n", mem);

	/* Second pass, do actual unflattening */
	start = 0;
	unflatten_dt_node(blob, mem, &start, NULL, mynodes, 0, false);
 624:	eaffffef 	b	5e8 <of_flat_dt_match_machine+0x1c>
 628:	e3540000 	cmp	r4, #0

	/* Allocate memory for the expanded device tree */
	mem = dt_alloc(size + 4, __alignof__(struct device_node));
	memset(mem, 0, size);

	*(__be32 *)(mem + size) = cpu_to_be32(0xdeadbeef);
 62c:	1a000021 	bne	6b8 <of_flat_dt_match_machine+0xec>

	pr_debug("  unflattening %p...\n", mem);

	/* Second pass, do actual unflattening */
	start = 0;
	unflatten_dt_node(blob, mem, &start, NULL, mynodes, 0, false);
 630:	e3000000 	movw	r0, #0

	/* Allocate memory for the expanded device tree */
	mem = dt_alloc(size + 4, __alignof__(struct device_node));
	memset(mem, 0, size);

	*(__be32 *)(mem + size) = cpu_to_be32(0xdeadbeef);
 634:	e3400000 	movt	r0, #0
 638:	ebfffffe 	bl	0 <printk>

	pr_debug("  unflattening %p...\n", mem);

	/* Second pass, do actual unflattening */
	start = 0;
	unflatten_dt_node(blob, mem, &start, NULL, mynodes, 0, false);
 63c:	e1a00004 	mov	r0, r4
 640:	e3001000 	movw	r1, #0
 644:	e24b2020 	sub	r2, fp, #32
 648:	e3401000 	movt	r1, #0
	*(__be32 *)(mem + size) = cpu_to_be32(0xdeadbeef);

	pr_debug("  unflattening %p...\n", mem);

	/* Second pass, do actual unflattening */
	start = 0;
 64c:	ebfffffe 	bl	2d8 <of_get_flat_dt_prop>
	unflatten_dt_node(blob, mem, &start, NULL, mynodes, 0, false);
 650:	e2504000 	subs	r4, r0, #0
static inline __u32 __swab32p(const __u32 *p)
{
#ifdef __arch_swab32p
	return __arch_swab32p(p);
#else
	return __swab32(*p);
 654:	13005000 	movwne	r5, #0
}

static inline __attribute_const__ __u32 __fswab32(__u32 val)
{
#ifdef __HAVE_BUILTIN_BSWAP32__
	return __builtin_bswap32(val);
 658:	13405000 	movtne	r5, #0
	if (be32_to_cpup(mem + size) != 0xdeadbeef)
 65c:	1a000004 	bne	674 <of_flat_dt_match_machine+0xa8>
 660:	e3000000 	movw	r0, #0
 664:	e3400000 	movt	r0, #0
 668:	ebfffffe 	bl	0 <printk>
		pr_warning("End of tree marker overwritten: %08x\n",
			   be32_to_cpup(mem + size));

	pr_debug(" <- unflatten_device_tree()\n");
}
 66c:	e3a00000 	mov	r0, #0
 670:	ea000016 	b	6d0 <of_flat_dt_match_machine+0x104>

	pr_debug("  size is %lx, allocating...\n", size);

	/* Allocate memory for the expanded device tree */
	mem = dt_alloc(size + 4, __alignof__(struct device_node));
	memset(mem, 0, size);
 674:	e51b3020 	ldr	r3, [fp, #-32]	; 0xffffffe0
 678:	e3530000 	cmp	r3, #0

	pr_debug("  unflattening %p...\n", mem);

	/* Second pass, do actual unflattening */
	start = 0;
	unflatten_dt_node(blob, mem, &start, NULL, mynodes, 0, false);
 67c:	dafffff7 	ble	660 <of_flat_dt_match_machine+0x94>
 680:	e1a01004 	mov	r1, r4

	/* Allocate memory for the expanded device tree */
	mem = dt_alloc(size + 4, __alignof__(struct device_node));
	memset(mem, 0, size);

	*(__be32 *)(mem + size) = cpu_to_be32(0xdeadbeef);
 684:	e1a00005 	mov	r0, r5

	pr_debug("  unflattening %p...\n", mem);

	/* Second pass, do actual unflattening */
	start = 0;
	unflatten_dt_node(blob, mem, &start, NULL, mynodes, 0, false);
 688:	ebfffffe 	bl	0 <printk>

	/* Allocate memory for the expanded device tree */
	mem = dt_alloc(size + 4, __alignof__(struct device_node));
	memset(mem, 0, size);

	*(__be32 *)(mem + size) = cpu_to_be32(0xdeadbeef);
 68c:	e1a00004 	mov	r0, r4
 690:	ebfffffe 	bl	0 <strlen>

	pr_debug("  unflattening %p...\n", mem);

	/* Second pass, do actual unflattening */
	start = 0;
	unflatten_dt_node(blob, mem, &start, NULL, mynodes, 0, false);
 694:	e51b3020 	ldr	r3, [fp, #-32]	; 0xffffffe0
	*(__be32 *)(mem + size) = cpu_to_be32(0xdeadbeef);

	pr_debug("  unflattening %p...\n", mem);

	/* Second pass, do actual unflattening */
	start = 0;
 698:	e2433001 	sub	r3, r3, #1
	unflatten_dt_node(blob, mem, &start, NULL, mynodes, 0, false);
 69c:	e0433000 	sub	r3, r3, r0
 6a0:	e1a00004 	mov	r0, r4
 6a4:	e50b3020 	str	r3, [fp, #-32]	; 0xffffffe0
 6a8:	ebfffffe 	bl	0 <strlen>
static inline __u32 __swab32p(const __u32 *p)
{
#ifdef __arch_swab32p
	return __arch_swab32p(p);
#else
	return __swab32(*p);
 6ac:	e2800001 	add	r0, r0, #1
 6b0:	e0844000 	add	r4, r4, r0
	if (be32_to_cpup(mem + size) != 0xdeadbeef)
		pr_warning("End of tree marker overwritten: %08x\n",
 6b4:	eaffffee 	b	674 <of_flat_dt_match_machine+0xa8>
 6b8:	ebfffffe 	bl	58c <of_flat_dt_get_machine_name>
 6bc:	e1a01000 	mov	r1, r0
 6c0:	e3000000 	movw	r0, #0
	pr_debug("magic: %08x\n", fdt_magic(blob));
	pr_debug("size: %08x\n", fdt_totalsize(blob));
	pr_debug("version: %08x\n", fdt_version(blob));

	if (fdt_check_header(blob)) {
		pr_err("Invalid device tree blob header\n");
 6c4:	e3400000 	movt	r0, #0
 6c8:	ebfffffe 	bl	0 <printk>
 6cc:	e1a00004 	mov	r0, r4
		return;
 6d0:	e24bd01c 	sub	sp, fp, #28
 * pointers of the nodes so the normal device-tree walking functions
 * can be used.
 */
void of_fdt_unflatten_tree(const unsigned long *blob,
			struct device_node **mynodes)
{
 6d4:	e89da8f0 	ldm	sp, {r4, r5, r6, r7, fp, sp, pc}

000006d8 <dt_mem_next_cell>:
 6d8:	e1a0c00d 	mov	ip, sp
 6dc:	e92dd830 	push	{r4, r5, fp, ip, lr, pc}
 6e0:	e24cb004 	sub	fp, ip, #4
 6e4:	e5912000 	ldr	r2, [r1]
	mutex_lock(&of_fdt_unflatten_mutex);
 6e8:	e1a0c001 	mov	ip, r1
 * pointers of the nodes so the normal device-tree walking functions
 * can be used.
 */
void of_fdt_unflatten_tree(const unsigned long *blob,
			struct device_node **mynodes)
{
 6ec:	e1a03000 	mov	r3, r0
 6f0:	e3a01000 	mov	r1, #0
	mutex_lock(&of_fdt_unflatten_mutex);
 6f4:	e3a00000 	mov	r0, #0
 6f8:	e082e103 	add	lr, r2, r3, lsl #2
	__unflatten_device_tree(blob, mynodes, &kernel_tree_alloc);
 6fc:	e58ce000 	str	lr, [ip]
 700:	e2433001 	sub	r3, r3, #1
 704:	e1a05000 	mov	r5, r0
 708:	e3730001 	cmn	r3, #1
 70c:	e3a04000 	mov	r4, #0
	mutex_unlock(&of_fdt_unflatten_mutex);
 710:	0a000004 	beq	728 <dt_mem_next_cell+0x50>
 714:	e492c004 	ldr	ip, [r2], #4
 718:	e1a01005 	mov	r1, r5
 71c:	e6bfcf3c 	rev	ip, ip
 * Adjust the flattened device tree to have at most 'limit' number of
 * memory entries in the /memory node. This function may be called
 * any time after initial_boot_param is set.
 */
void of_fdt_limit_memory(int limit)
{
 720:	e184000c 	orr	r0, r4, ip
 724:	eafffff5 	b	700 <dt_mem_next_cell+0x28>
 728:	e89da830 	ldm	sp, {r4, r5, fp, sp, pc}

0000072c <early_init_dt_add_memory_arch>:
 72c:	e1a0c00d 	mov	ip, sp
 730:	e92ddbf0 	push	{r4, r5, r6, r7, r8, r9, fp, ip, lr, pc}
 734:	e24cb004 	sub	fp, ip, #4
	const uint32_t *addr_prop;
	const uint32_t *size_prop;
	int root_offset;
	int cell_size;

	root_offset = fdt_path_offset(initial_boot_params, "/");
 738:	e24dd010 	sub	sp, sp, #16
 73c:	e1a04000 	mov	r4, r0
 * Adjust the flattened device tree to have at most 'limit' number of
 * memory entries in the /memory node. This function may be called
 * any time after initial_boot_param is set.
 */
void of_fdt_limit_memory(int limit)
{
 740:	e1a05001 	mov	r5, r1
	const uint32_t *addr_prop;
	const uint32_t *size_prop;
	int root_offset;
	int cell_size;

	root_offset = fdt_path_offset(initial_boot_params, "/");
 744:	e1a08002 	mov	r8, r2
 748:	e1a09003 	mov	r9, r3
 74c:	e3a07081 	mov	r7, #129	; 0x81
 750:	e3a03103 	mov	r3, #-1073741824	; 0xc0000000
	if (root_offset < 0)
 754:	e2936481 	adds	r6, r3, #-2130706432	; 0x81000000
 758:	e2a77000 	adc	r7, r7, #0
		return;

	addr_prop = fdt_getprop(initial_boot_params, root_offset,
 75c:	e3001000 	movw	r1, #0
 760:	e1cd60f0 	strd	r6, [sp]
 764:	e3401000 	movt	r1, #0
 768:	e3000000 	movw	r0, #0
 76c:	e30023e5 	movw	r2, #997	; 0x3e5
 770:	e3400000 	movt	r0, #0
				"#address-cells", NULL);
	if (addr_prop)
 774:	ebfffffe 	bl	0 <printk>
 778:	e7eb3054 	ubfx	r3, r4, #0, #12
}

static inline __attribute_const__ __u32 __fswab32(__u32 val)
{
#ifdef __HAVE_BUILTIN_BSWAP32__
	return __builtin_bswap32(val);
 77c:	e3530000 	cmp	r3, #0
		nr_address_cells = fdt32_to_cpu(*addr_prop);

	size_prop = fdt_getprop(initial_boot_params, root_offset,
 780:	0a000026 	beq	820 <early_init_dt_add_memory_arch+0xf4>
 784:	e3000fff 	movw	r0, #4095	; 0xfff
 788:	e0000004 	and	r0, r0, r4
 78c:	e3a02a01 	mov	r2, #4096	; 0x1000
 790:	e3a01000 	mov	r1, #0
 794:	e0011005 	and	r1, r1, r5
 798:	e14b02fc 	strd	r0, [fp, #-44]	; 0xffffffd4
				"#size-cells", NULL);
	if (size_prop)
 79c:	e0520000 	subs	r0, r2, r0
 7a0:	e3a03000 	mov	r3, #0
 7a4:	e0c31001 	sbc	r1, r3, r1
 7a8:	e1590001 	cmp	r9, r1
		nr_size_cells = fdt32_to_cpu(*size_prop);
 7ac:	01580000 	cmpeq	r8, r0
 7b0:	2a000008 	bcs	7d8 <early_init_dt_add_memory_arch+0xac>
 7b4:	e0988004 	adds	r8, r8, r4
 7b8:	e1a02004 	mov	r2, r4

	cell_size = sizeof(uint32_t)*(nr_address_cells + nr_size_cells);

	memory = fdt_path_offset(initial_boot_params, "/memory");
 7bc:	e0a99005 	adc	r9, r9, r5
 7c0:	e1a03005 	mov	r3, r5
 7c4:	e1cd80f0 	strd	r8, [sp]
 7c8:	e3000000 	movw	r0, #0
	if (memory > 0) {
 7cc:	e3400000 	movt	r0, #0
 7d0:	ebfffffe 	bl	0 <printk>
		val = fdt_getprop(initial_boot_params, memory, "reg", &len);
 7d4:	ea000036 	b	8b4 <early_init_dt_add_memory_arch+0x188>
 7d8:	e2588a01 	subs	r8, r8, #4096	; 0x1000
 7dc:	e14b02dc 	ldrd	r0, [fp, #-44]	; 0xffffffd4
 7e0:	e2c99000 	sbc	r9, r9, #0
 7e4:	e3002fff 	movw	r2, #4095	; 0xfff
 7e8:	e0922004 	adds	r2, r2, r4
		if (len > limit*cell_size) {
 7ec:	e3a03000 	mov	r3, #0
 7f0:	e0a33005 	adc	r3, r3, r5
 7f4:	e0900008 	adds	r0, r0, r8
 7f8:	e1a04002 	mov	r4, r2
			pr_debug("Limiting number of entries to %d\n", limit);
			fdt_setprop(initial_boot_params, memory, "reg", val,
					len);
		}
	}
}
 7fc:	e0a11009 	adc	r1, r1, r9
 800:	e3a02a0f 	mov	r2, #61440	; 0xf000
	if (memory > 0) {
		val = fdt_getprop(initial_boot_params, memory, "reg", &len);
		if (len > limit*cell_size) {
			len = limit*cell_size;
			pr_debug("Limiting number of entries to %d\n", limit);
			fdt_setprop(initial_boot_params, memory, "reg", val,
 804:	e34f2fff 	movt	r2, #65535	; 0xffff
 808:	e1a05003 	mov	r5, r3
 80c:	e0044002 	and	r4, r4, r2
 810:	e3e03000 	mvn	r3, #0
 814:	e0055003 	and	r5, r5, r3
 818:	e1a08000 	mov	r8, r0
 81c:	e1a09001 	mov	r9, r1

	memory = fdt_path_offset(initial_boot_params, "/memory");
	if (memory > 0) {
		val = fdt_getprop(initial_boot_params, memory, "reg", &len);
		if (len > limit*cell_size) {
			len = limit*cell_size;
 820:	e3a02a0f 	mov	r2, #61440	; 0xf000
			pr_debug("Limiting number of entries to %d\n", limit);
			fdt_setprop(initial_boot_params, memory, "reg", val,
 824:	e34f2fff 	movt	r2, #65535	; 0xffff
					len);
		}
	}
}
 828:	e0088002 	and	r8, r8, r2
 82c:	e3e03000 	mvn	r3, #0
	addr_prop = fdt_getprop(initial_boot_params, root_offset,
				"#address-cells", NULL);
	if (addr_prop)
		nr_address_cells = fdt32_to_cpu(*addr_prop);

	size_prop = fdt_getprop(initial_boot_params, root_offset,
 830:	e0942008 	adds	r2, r4, r8
 834:	e0099003 	and	r9, r9, r3
 838:	e0a53009 	adc	r3, r5, r9
 83c:	e1530007 	cmp	r3, r7
 840:	01520006 	cmpeq	r2, r6
				"#size-cells", NULL);
	if (size_prop)
 844:	2a000006 	bcs	864 <early_init_dt_add_memory_arch+0x138>
 848:	e1cd20f0 	strd	r2, [sp]
 84c:	e3000000 	movw	r0, #0
		nr_size_cells = fdt32_to_cpu(*size_prop);
 850:	e1a02004 	mov	r2, r4
void of_fdt_limit_memory(int limit)
{
	int memory;
	int len;
	const void *val;
	int nr_address_cells = OF_ROOT_NODE_ADDR_CELLS_DEFAULT;
 854:	e1a03005 	mov	r3, r5
 858:	e3400000 	movt	r0, #0
 * On match, returns a non-zero value with smaller values returned for more
 * specific compatible values.
 */
int of_fdt_is_compatible(const void *blob,
		      unsigned long node, const char *compat)
{
 85c:	ebfffffe 	bl	0 <printk>
 860:	ea000013 	b	8b4 <early_init_dt_add_memory_arch+0x188>
 864:	e1550007 	cmp	r5, r7
 868:	01540006 	cmpeq	r4, r6
 86c:	2a00000b 	bcs	8a0 <early_init_dt_add_memory_arch+0x174>
 870:	e1a02004 	mov	r2, r4
 874:	e1a03005 	mov	r3, r5
	const char *cp;
	int cplen;
	unsigned long l, score = 0;

	cp = fdt_getprop(blob, node, "compatible", &cplen);
 878:	e1cd60f0 	strd	r6, [sp]
 87c:	e3000000 	movw	r0, #0
 880:	e3400000 	movt	r0, #0
 884:	ebfffffe 	bl	0 <printk>
	if (cp == NULL)
 888:	e0544006 	subs	r4, r4, r6
 88c:	e0c55007 	sbc	r5, r5, r7
		return 0;
	while (cplen > 0) {
 890:	e0988004 	adds	r8, r8, r4
 894:	e0a99005 	adc	r9, r9, r5
 898:	e1a04006 	mov	r4, r6
 89c:	e1a05007 	mov	r5, r7
 8a0:	e1a02008 	mov	r2, r8
		score++;
		if (of_compat_cmp(cp, compat, strlen(compat)) == 0)
			return score;
		l = strlen(cp) + 1;
 8a4:	e1a03009 	mov	r3, r9
 8a8:	e1a00004 	mov	r0, r4
		cp += l;
		cplen -= l;
 8ac:	e1a01005 	mov	r1, r5
	while (cplen > 0) {
		score++;
		if (of_compat_cmp(cp, compat, strlen(compat)) == 0)
			return score;
		l = strlen(cp) + 1;
		cp += l;
 8b0:	ebfffffe 	bl	0 <memblock_add>
	unsigned long l, score = 0;

	cp = fdt_getprop(blob, node, "compatible", &cplen);
	if (cp == NULL)
		return 0;
	while (cplen > 0) {
 8b4:	e24bd024 	sub	sp, fp, #36	; 0x24
		score++;
		if (of_compat_cmp(cp, compat, strlen(compat)) == 0)
			return score;
		l = strlen(cp) + 1;
		cp += l;
		cplen -= l;
 8b8:	e89dabf0 	ldm	sp, {r4, r5, r6, r7, r8, r9, fp, sp, pc}

000008bc <early_init_dt_scan_memory>:
	unsigned long l, score = 0;

	cp = fdt_getprop(blob, node, "compatible", &cplen);
	if (cp == NULL)
		return 0;
	while (cplen > 0) {
 8bc:	e1a0c00d 	mov	ip, sp
		score++;
		if (of_compat_cmp(cp, compat, strlen(compat)) == 0)
 8c0:	e92dd8f0 	push	{r4, r5, r6, r7, fp, ip, lr, pc}
 8c4:	e24cb004 	sub	fp, ip, #4
 8c8:	e24dd008 	sub	sp, sp, #8

	cp = fdt_getprop(blob, node, "compatible", &cplen);
	if (cp == NULL)
		return 0;
	while (cplen > 0) {
		score++;
 8cc:	e3001000 	movw	r1, #0
		if (of_compat_cmp(cp, compat, strlen(compat)) == 0)
 8d0:	e3a02000 	mov	r2, #0
			return score;
		l = strlen(cp) + 1;
 8d4:	e3401000 	movt	r1, #0
	cp = fdt_getprop(blob, node, "compatible", &cplen);
	if (cp == NULL)
		return 0;
	while (cplen > 0) {
		score++;
		if (of_compat_cmp(cp, compat, strlen(compat)) == 0)
 8d8:	e1a04000 	mov	r4, r0
			return score;
 8dc:	ebfffffe 	bl	2d8 <of_get_flat_dt_prop>
		cp += l;
		cplen -= l;
	}

	return 0;
}
 8e0:	e3500000 	cmp	r0, #0
 8e4:	0a000030 	beq	9ac <early_init_dt_scan_memory+0xf0>
	int cplen;
	unsigned long l, score = 0;

	cp = fdt_getprop(blob, node, "compatible", &cplen);
	if (cp == NULL)
		return 0;
 8e8:	e3001000 	movw	r1, #0
		cp += l;
		cplen -= l;
	}

	return 0;
}
 8ec:	e3401000 	movt	r1, #0
 8f0:	ebfffffe 	bl	0 <strcmp>
 * Returns true if the node has a "big-endian" property, or if the kernel
 * was compiled for BE *and* the node has a "native-endian" property.
 * Returns false otherwise.
 */
bool of_fdt_is_big_endian(const void *blob, unsigned long node)
{
 8f4:	e3500000 	cmp	r0, #0
 8f8:	1a00002b 	bne	9ac <early_init_dt_scan_memory+0xf0>
 8fc:	e3001000 	movw	r1, #0
 900:	e1a00004 	mov	r0, r4
 904:	e3401000 	movt	r1, #0
	if (fdt_getprop(blob, node, "big-endian", NULL))
 908:	e24b2020 	sub	r2, fp, #32
 90c:	ebfffffe 	bl	2d8 <of_get_flat_dt_prop>
 910:	e3500000 	cmp	r0, #0
 914:	e50b0024 	str	r0, [fp, #-36]	; 0xffffffdc
		return true;
	if (IS_ENABLED(CONFIG_CPU_BIG_ENDIAN) &&
	    fdt_getprop(blob, node, "native-endian", NULL))
		return true;
	return false;
}
 918:	1a000005 	bne	934 <early_init_dt_scan_memory+0x78>
 91c:	e24b2020 	sub	r2, fp, #32
 920:	e1a00004 	mov	r0, r4
/**
 * of_fdt_match - Return true if node matches a list of compatible values
 */
int of_fdt_match(const void *blob, unsigned long node,
                 const char *const *compat)
{
 924:	e3001000 	movw	r1, #0
 928:	e3401000 	movt	r1, #0
 92c:	ebfffffe 	bl	2d8 <of_get_flat_dt_prop>
 930:	e50b0024 	str	r0, [fp, #-36]	; 0xffffffdc
 934:	e51b2024 	ldr	r2, [fp, #-36]	; 0xffffffdc
	unsigned int tmp, score = 0;

	if (!compat)
 938:	e3520000 	cmp	r2, #0
/**
 * of_fdt_match - Return true if node matches a list of compatible values
 */
int of_fdt_match(const void *blob, unsigned long node,
                 const char *const *compat)
{
 93c:	0a00001a 	beq	9ac <early_init_dt_scan_memory+0xf0>
 940:	e51b3020 	ldr	r3, [fp, #-32]	; 0xffffffe0
	unsigned int tmp, score = 0;

	if (!compat)
 944:	e3004000 	movw	r4, #0
		return 0;

	while (*compat) {
 948:	e3404000 	movt	r4, #0
 94c:	e3c33003 	bic	r3, r3, #3
 950:	e0825003 	add	r5, r2, r3
 954:	e51b2024 	ldr	r2, [fp, #-36]	; 0xffffffdc
		tmp = of_fdt_is_compatible(blob, node, *compat);
 958:	e5940004 	ldr	r0, [r4, #4]
 95c:	e5943000 	ldr	r3, [r4]
 960:	e0452002 	sub	r2, r5, r2
		if (tmp && (score == 0 || (tmp < score)))
 964:	e0803003 	add	r3, r0, r3
 968:	e1530142 	cmp	r3, r2, asr #2
 96c:	ca00000e 	bgt	9ac <early_init_dt_scan_memory+0xf0>
 970:	e24b1024 	sub	r1, fp, #36	; 0x24
 974:	ebfffffe 	bl	6d8 <dt_mem_next_cell>
 978:	e1a06000 	mov	r6, r0
 97c:	e1a07001 	mov	r7, r1
 980:	e5940000 	ldr	r0, [r4]
 984:	e24b1024 	sub	r1, fp, #36	; 0x24
	unsigned int tmp, score = 0;

	if (!compat)
		return 0;

	while (*compat) {
 988:	ebfffffe 	bl	6d8 <dt_mem_next_cell>
 98c:	e1a02000 	mov	r2, r0
 990:	e1a03001 	mov	r3, r1
 994:	e1921003 	orrs	r1, r2, r3
 998:	0affffed 	beq	954 <early_init_dt_scan_memory+0x98>
                 const char *const *compat)
{
	unsigned int tmp, score = 0;

	if (!compat)
		return 0;
 99c:	e1a00006 	mov	r0, r6
			score = tmp;
		compat++;
	}

	return score;
}
 9a0:	e1a01007 	mov	r1, r7
	unsigned int tmp, score = 0;

	if (!compat)
		return 0;

	while (*compat) {
 9a4:	ebfffffe 	bl	72c <early_init_dt_add_memory_arch>
		if (tmp && (score == 0 || (tmp < score)))
			score = tmp;
		compat++;
	}

	return score;
 9a8:	eaffffe9 	b	954 <early_init_dt_scan_memory+0x98>
	}
	return -ENODEV;
}

static int __init setup_of_earlycon(char *buf)
{
 9ac:	e3a00000 	mov	r0, #0
 9b0:	e24bd01c 	sub	sp, fp, #28
 9b4:	e89da8f0 	ldm	sp, {r4, r5, r6, r7, fp, sp, pc}

000009b8 <early_init_dt_reserve_memory_arch>:
 9b8:	e1a0c00d 	mov	ip, sp
	if (buf)
 9bc:	e92dd800 	push	{fp, ip, lr, pc}
		return 0;
 9c0:	e24cb004 	sub	fp, ip, #4
	return -ENODEV;
}

static int __init setup_of_earlycon(char *buf)
{
	if (buf)
 9c4:	e5dbc004 	ldrb	ip, [fp, #4]
{
	int offset;
	const char *p;
	int l;
	const struct of_device_id *match = __earlycon_of_table;
	const void *fdt = initial_boot_params;
 9c8:	e35c0000 	cmp	ip, #0
 9cc:	0a000001 	beq	9d8 <early_init_dt_reserve_memory_arch+0x20>

	offset = fdt_path_offset(fdt, "/chosen");
 9d0:	ebfffffe 	bl	0 <memblock_remove>
 9d4:	e89da800 	ldm	sp, {fp, sp, pc}
{
	int offset;
	const char *p;
	int l;
	const struct of_device_id *match = __earlycon_of_table;
	const void *fdt = initial_boot_params;
 9d8:	ebfffffe 	bl	0 <memblock_reserve>

	offset = fdt_path_offset(fdt, "/chosen");
 9dc:	e89da800 	ldm	sp, {fp, sp, pc}

000009e0 <early_init_fdt_scan_reserved_mem>:
 9e0:	e1a0c00d 	mov	ip, sp
	if (offset < 0)
 9e4:	e92dd830 	push	{r4, r5, fp, ip, lr, pc}
 9e8:	e24cb004 	sub	fp, ip, #4
		offset = fdt_path_offset(fdt, "/chosen@0");
 9ec:	e24dd018 	sub	sp, sp, #24
 9f0:	e3003000 	movw	r3, #0
 9f4:	e3403000 	movt	r3, #0
 9f8:	e5932000 	ldr	r2, [r3]
	if (offset < 0)
 9fc:	e1a04003 	mov	r4, r3
 a00:	e3520000 	cmp	r2, #0
		return -ENOENT;
 a04:	0a000013 	beq	a58 <early_init_fdt_scan_reserved_mem+0x78>
 a08:	e3a05000 	mov	r5, #0

	p = fdt_getprop(fdt, offset, "stdout-path", &l);
 a0c:	e24b301c 	sub	r3, fp, #28
 a10:	e24b2024 	sub	r2, fp, #36	; 0x24
 a14:	e1a01005 	mov	r1, r5
 a18:	e5940000 	ldr	r0, [r4]
 a1c:	ebfffffe 	bl	0 <fdt_get_mem_rsv>
 a20:	e14b21dc 	ldrd	r2, [fp, #-28]	; 0xffffffe4
	if (!p)
 a24:	e1921003 	orrs	r1, r2, r3
 a28:	0a000005 	beq	a44 <early_init_fdt_scan_reserved_mem+0x64>
		p = fdt_getprop(fdt, offset, "linux,stdout-path", &l);
 a2c:	e3a0c000 	mov	ip, #0
 a30:	e14b02d4 	ldrd	r0, [fp, #-36]	; 0xffffffdc
 a34:	e58dc000 	str	ip, [sp]
 a38:	e2855001 	add	r5, r5, #1
 a3c:	ebfffffe 	bl	9b8 <early_init_dt_reserve_memory_arch>
 a40:	eafffff1 	b	a0c <early_init_fdt_scan_reserved_mem+0x2c>
	if (!p || !l)
 a44:	e3000000 	movw	r0, #0
 a48:	e3a01000 	mov	r1, #0
 a4c:	e3400000 	movt	r0, #0
 a50:	ebfffffe 	bl	1d8 <of_scan_flat_dt>
 a54:	ebfffffe 	bl	0 <fdt_init_reserved_mem>
		return -ENOENT;

	/* Remove console options if present */
	l = strchrnul(p, ':') - p;
 a58:	e24bd014 	sub	sp, fp, #20
 a5c:	e89da830 	ldm	sp, {r4, r5, fp, sp, pc}

00000a60 <__fdt_scan_reserved_mem>:
 a60:	e1a0c00d 	mov	ip, sp

	/* Get the node specified by stdout-path */
	offset = fdt_path_offset_namelen(fdt, p, l);
 a64:	e92ddff0 	push	{r4, r5, r6, r7, r8, r9, sl, fp, ip, lr, pc}
		p = fdt_getprop(fdt, offset, "linux,stdout-path", &l);
	if (!p || !l)
		return -ENOENT;

	/* Remove console options if present */
	l = strchrnul(p, ':') - p;
 a68:	e24cb004 	sub	fp, ip, #4

	/* Get the node specified by stdout-path */
	offset = fdt_path_offset_namelen(fdt, p, l);
 a6c:	e24dd024 	sub	sp, sp, #36	; 0x24
		p = fdt_getprop(fdt, offset, "linux,stdout-path", &l);
	if (!p || !l)
		return -ENOENT;

	/* Remove console options if present */
	l = strchrnul(p, ':') - p;
 a70:	e3006000 	movw	r6, #0

	/* Get the node specified by stdout-path */
	offset = fdt_path_offset_namelen(fdt, p, l);
 a74:	e3406000 	movt	r6, #0
	if (offset < 0)
 a78:	e1a09001 	mov	r9, r1
 a7c:	e1a08002 	mov	r8, r2
 a80:	e1a04000 	mov	r4, r0
 a84:	e596300c 	ldr	r3, [r6, #12]
		return -ENODEV;
 a88:	e3530000 	cmp	r3, #0
 a8c:	1a00002c 	bne	b44 <__fdt_scan_reserved_mem+0xe4>

	while (match->compatible[0]) {
		u64 addr;

		if (fdt_node_check_compatible(fdt, offset, match->compatible)) {
 a90:	e3520001 	cmp	r2, #1
 a94:	0a000001 	beq	aa0 <__fdt_scan_reserved_mem+0x40>
 a98:	e3a05000 	mov	r5, #0
			match++;
 a9c:	ea00009f 	b	d20 <__fdt_scan_reserved_mem+0x2c0>
	/* Get the node specified by stdout-path */
	offset = fdt_path_offset_namelen(fdt, p, l);
	if (offset < 0)
		return -ENODEV;

	while (match->compatible[0]) {
 aa0:	e1a00001 	mov	r0, r1
		u64 addr;

		if (fdt_node_check_compatible(fdt, offset, match->compatible)) {
 aa4:	e3001000 	movw	r1, #0
 aa8:	e3401000 	movt	r1, #0
 aac:	ebfffffe 	bl	0 <strcmp>
	/* Get the node specified by stdout-path */
	offset = fdt_path_offset_namelen(fdt, p, l);
	if (offset < 0)
		return -ENODEV;

	while (match->compatible[0]) {
 ab0:	e2505000 	subs	r5, r0, #0
 ab4:	1afffff7 	bne	a98 <__fdt_scan_reserved_mem+0x38>
 ab8:	e3001000 	movw	r1, #0
		if (fdt_node_check_compatible(fdt, offset, match->compatible)) {
			match++;
			continue;
		}

		addr = fdt_translate_address(fdt, offset);
 abc:	e1a02005 	mov	r2, r5
 ac0:	e3401000 	movt	r1, #0
 ac4:	e1a00004 	mov	r0, r4
		if (addr == OF_BAD_ADDR)
 ac8:	ebfffffe 	bl	2d8 <of_get_flat_dt_prop>
 acc:	e3500000 	cmp	r0, #0
 ad0:	0a00008e 	beq	d10 <__fdt_scan_reserved_mem+0x2b0>
 ad4:	e3007000 	movw	r7, #0
			return -ENXIO;
 ad8:	e3407000 	movt	r7, #0
			match++;
			continue;
		}

		addr = fdt_translate_address(fdt, offset);
		if (addr == OF_BAD_ADDR)
 adc:	e5903000 	ldr	r3, [r0]
			return -ENXIO;

		of_setup_earlycon(addr, match->data);
 ae0:	e5972000 	ldr	r2, [r7]
 ae4:	e6bf3f33 	rev	r3, r3
{
	if (buf)
		return 0;

	return early_init_dt_scan_chosen_serial();
}
 ae8:	e1530002 	cmp	r3, r2
 aec:	1a000087 	bne	d10 <__fdt_scan_reserved_mem+0x2b0>
 af0:	e3001000 	movw	r1, #0
/*
 * called from unflatten_device_tree() to bootstrap devicetree itself
 * Architectures can override this definition if memblock isn't used
 */
void * __init __weak early_init_dt_alloc_memory_arch(u64 size, u64 align)
{
 af4:	e1a02005 	mov	r2, r5
 af8:	e3401000 	movt	r1, #0
 afc:	e1a00004 	mov	r0, r4
	return __va(memblock_alloc(size, align));
 b00:	ebfffffe 	bl	2d8 <of_get_flat_dt_prop>
	 * 'unsigned long' cast discard upper word when
	 * phys_addr_t is 64 bit, and makes sure that inline
	 * assembler expression receives 32 bit argument
	 * in place where 'r' 32 bit operand is expected.
	 */
	__pv_stub((unsigned long) x, t, "sub", __PV_BITS_31_24);
 b04:	e3500000 	cmp	r0, #0
}
 b08:	0a000080 	beq	d10 <__fdt_scan_reserved_mem+0x2b0>
	memcpy(buf, initial_boot_params + off, count);
	return count;
}

static int __init of_fdt_raw_init(void)
{
 b0c:	e5903000 	ldr	r3, [r0]
 b10:	e5972004 	ldr	r2, [r7, #4]
 b14:	e6bf3f33 	rev	r3, r3
	static struct bin_attribute of_fdt_raw_attr =
		__BIN_ATTR(fdt, S_IRUSR, of_fdt_raw_read, NULL, 0);

	if (!initial_boot_params)
 b18:	e1530002 	cmp	r3, r2
 b1c:	1a00007b 	bne	d10 <__fdt_scan_reserved_mem+0x2b0>
 b20:	e1a00004 	mov	r0, r4
 b24:	e3001000 	movw	r1, #0
 b28:	e1a02005 	mov	r2, r5
 b2c:	e3401000 	movt	r1, #0
		return 0;

	if (of_fdt_crc32 != crc32_be(~0, initial_boot_params,
 b30:	ebfffffe 	bl	2d8 <of_get_flat_dt_prop>
 b34:	e3500000 	cmp	r0, #0
 b38:	1586800c 	strne	r8, [r6, #12]
 b3c:	1a000077 	bne	d20 <__fdt_scan_reserved_mem+0x2c0>
 b40:	ea000072 	b	d10 <__fdt_scan_reserved_mem+0x2b0>
 b44:	e3520001 	cmp	r2, #1
 b48:	da000073 	ble	d1c <__fdt_scan_reserved_mem+0x2bc>
				     fdt_totalsize(initial_boot_params))) {
		pr_warn("fdt: not creating '/sys/firmware/fdt': CRC check failed\n");
 b4c:	e3001000 	movw	r1, #0
 b50:	e3a02000 	mov	r2, #0
 b54:	e3401000 	movt	r1, #0
		return 0;
 b58:	ebfffffe 	bl	2d8 <of_get_flat_dt_prop>
 b5c:	e2505000 	subs	r5, r0, #0
	}
	of_fdt_raw_attr.size = fdt_totalsize(initial_boot_params);
 b60:	0a00000a 	beq	b90 <__fdt_scan_reserved_mem+0x130>
	return sysfs_create_bin_file(firmware_kobj, &of_fdt_raw_attr);
 b64:	e3001000 	movw	r1, #0
	if (of_fdt_crc32 != crc32_be(~0, initial_boot_params,
				     fdt_totalsize(initial_boot_params))) {
		pr_warn("fdt: not creating '/sys/firmware/fdt': CRC check failed\n");
		return 0;
	}
	of_fdt_raw_attr.size = fdt_totalsize(initial_boot_params);
 b68:	e3401000 	movt	r1, #0
	return sysfs_create_bin_file(firmware_kobj, &of_fdt_raw_attr);
 b6c:	ebfffffe 	bl	0 <strcmp>
 b70:	e3500000 	cmp	r0, #0
 b74:	0a000005 	beq	b90 <__fdt_scan_reserved_mem+0x130>
	if (of_fdt_crc32 != crc32_be(~0, initial_boot_params,
				     fdt_totalsize(initial_boot_params))) {
		pr_warn("fdt: not creating '/sys/firmware/fdt': CRC check failed\n");
		return 0;
	}
	of_fdt_raw_attr.size = fdt_totalsize(initial_boot_params);
 b78:	e1a00005 	mov	r0, r5
	return sysfs_create_bin_file(firmware_kobj, &of_fdt_raw_attr);
 b7c:	e3001000 	movw	r1, #0
 b80:	e3401000 	movt	r1, #0
 */
int __init of_scan_flat_dt(int (*it)(unsigned long node,
				     const char *uname, int depth,
				     void *data),
			   void *data)
{
 b84:	ebfffffe 	bl	0 <strcmp>
 b88:	e3500000 	cmp	r0, #0
 b8c:	1affffc1 	bne	a98 <__fdt_scan_reserved_mem+0x38>
 b90:	e3005000 	movw	r5, #0
	const void *blob = initial_boot_params;
 b94:	e3405000 	movt	r5, #0
 b98:	e3001000 	movw	r1, #0
	const char *pathp;
	int offset, rc = 0, depth = -1;
 b9c:	e24b203c 	sub	r2, fp, #60	; 0x3c
 ba0:	e5958004 	ldr	r8, [r5, #4]
 */
int __init of_scan_flat_dt(int (*it)(unsigned long node,
				     const char *uname, int depth,
				     void *data),
			   void *data)
{
 ba4:	e3401000 	movt	r1, #0
	const void *blob = initial_boot_params;
 ba8:	e5953000 	ldr	r3, [r5]
 */
int __init of_scan_flat_dt(int (*it)(unsigned long node,
				     const char *uname, int depth,
				     void *data),
			   void *data)
{
 bac:	e1a00004 	mov	r0, r4
	const void *blob = initial_boot_params;
	const char *pathp;
	int offset, rc = 0, depth = -1;
 bb0:	e0888003 	add	r8, r8, r3

        for (offset = fdt_next_node(blob, -1, &depth);
 bb4:	ebfffffe 	bl	2d8 <of_get_flat_dt_prop>
 bb8:	e1a08108 	lsl	r8, r8, #2
				     void *data),
			   void *data)
{
	const void *blob = initial_boot_params;
	const char *pathp;
	int offset, rc = 0, depth = -1;
 bbc:	e3500000 	cmp	r0, #0

        for (offset = fdt_next_node(blob, -1, &depth);
 bc0:	e1a06000 	mov	r6, r0
 bc4:	e50b0038 	str	r0, [fp, #-56]	; 0xffffffc8
 bc8:	0a000041 	beq	cd4 <__fdt_scan_reserved_mem+0x274>
             offset >= 0 && depth >= 0 && !rc;
             offset = fdt_next_node(blob, offset, &depth)) {

		pathp = fdt_get_name(blob, offset, NULL);
 bcc:	e51b003c 	ldr	r0, [fp, #-60]	; 0xffffffc4
{
	const void *blob = initial_boot_params;
	const char *pathp;
	int offset, rc = 0, depth = -1;

        for (offset = fdt_next_node(blob, -1, &depth);
 bd0:	e3500000 	cmp	r0, #0
             offset >= 0 && depth >= 0 && !rc;
             offset = fdt_next_node(blob, offset, &depth)) {

		pathp = fdt_get_name(blob, offset, NULL);
 bd4:	0a000008 	beq	bfc <__fdt_scan_reserved_mem+0x19c>
 bd8:	e1a01008 	mov	r1, r8
{
	const void *blob = initial_boot_params;
	const char *pathp;
	int offset, rc = 0, depth = -1;

        for (offset = fdt_next_node(blob, -1, &depth);
 bdc:	ebfffffe 	bl	0 <__aeabi_idivmod>
             offset >= 0 && depth >= 0 && !rc;
 be0:	e3510000 	cmp	r1, #0
 be4:	0a000004 	beq	bfc <__fdt_scan_reserved_mem+0x19c>
 be8:	e1a01009 	mov	r1, r9
 bec:	e3000000 	movw	r0, #0
             offset = fdt_next_node(blob, offset, &depth)) {

		pathp = fdt_get_name(blob, offset, NULL);
 bf0:	e3400000 	movt	r0, #0
		if (*pathp == '/')
 bf4:	ebfffffe 	bl	0 <printk>

        for (offset = fdt_next_node(blob, -1, &depth);
             offset >= 0 && depth >= 0 && !rc;
             offset = fdt_next_node(blob, offset, &depth)) {

		pathp = fdt_get_name(blob, offset, NULL);
 bf8:	eaffffa6 	b	a98 <__fdt_scan_reserved_mem+0x38>
		if (*pathp == '/')
 bfc:	e3001000 	movw	r1, #0
 c00:	e3a02000 	mov	r2, #0
 *
 * @path: path to extract the filename from.
 */
static inline const char *kbasename(const char *path)
{
	const char *tail = strrchr(path, '/');
 c04:	e3401000 	movt	r1, #0
	return tail ? tail + 1 : path;
 c08:	e1a00004 	mov	r0, r4
 c0c:	ebfffffe 	bl	2d8 <of_get_flat_dt_prop>
			pathp = kbasename(pathp);
		rc = it(offset, pathp, depth, data);
 c10:	e300a000 	movw	sl, #0
 c14:	e3a03001 	mov	r3, #1
 c18:	e340a000 	movt	sl, #0
 c1c:	e50b3040 	str	r3, [fp, #-64]	; 0xffffffc0
 c20:	e2903000 	adds	r3, r0, #0
	const char *pathp;
	int offset, rc = 0, depth = -1;

        for (offset = fdt_next_node(blob, -1, &depth);
             offset >= 0 && depth >= 0 && !rc;
             offset = fdt_next_node(blob, offset, &depth)) {
 c24:	13a03001 	movne	r3, #1
 c28:	e50b3044 	str	r3, [fp, #-68]	; 0xffffffbc

		pathp = fdt_get_name(blob, offset, NULL);
		if (*pathp == '/')
			pathp = kbasename(pathp);
		rc = it(offset, pathp, depth, data);
 c2c:	e51b303c 	ldr	r3, [fp, #-60]	; 0xffffffc4
	const char *pathp;
	int offset, rc = 0, depth = -1;

        for (offset = fdt_next_node(blob, -1, &depth);
             offset >= 0 && depth >= 0 && !rc;
             offset = fdt_next_node(blob, offset, &depth)) {
 c30:	e1580003 	cmp	r8, r3
 c34:	caffff97 	bgt	a98 <__fdt_scan_reserved_mem+0x38>
 c38:	e24b1038 	sub	r1, fp, #56	; 0x38
 c3c:	e5950004 	ldr	r0, [r5, #4]
		if (*pathp == '/')
			pathp = kbasename(pathp);
		rc = it(offset, pathp, depth, data);
	}
	return rc;
}
 c40:	ebfffffe 	bl	6d8 <dt_mem_next_cell>
 c44:	e14b03f4 	strd	r0, [fp, #-52]	; 0xffffffcc
 c48:	e24b1038 	sub	r1, fp, #56	; 0x38

/**
 * of_get_flat_dt_root - find the root node in the flat blob
 */
unsigned long __init of_get_flat_dt_root(void)
{
 c4c:	e5950000 	ldr	r0, [r5]
 c50:	ebfffffe 	bl	6d8 <dt_mem_next_cell>
 c54:	e1a06000 	mov	r6, r0
	return 0;
}
 c58:	e1a07001 	mov	r7, r1
 c5c:	e1a03001 	mov	r3, r1

/**
 * of_get_flat_dt_size - Return the total size of the FDT
 */
int __init of_get_flat_dt_size(void)
{
 c60:	e1961007 	orrs	r1, r6, r7
 c64:	e1a02000 	mov	r2, r0
 c68:	1a000005 	bne	c84 <__fdt_scan_reserved_mem+0x224>
	return fdt_totalsize(initial_boot_params);
 c6c:	e1a03a26 	lsr	r3, r6, #20
 c70:	e24b2034 	sub	r2, fp, #52	; 0x34
 c74:	e1a01009 	mov	r1, r9
 c78:	e1a0000a 	mov	r0, sl
}
 c7c:	ebfffffe 	bl	0 <printk>
 c80:	ea000005 	b	c9c <__fdt_scan_reserved_mem+0x23c>
 * This function can be used within scan_flattened_dt callback to get
 * access to properties
 */
const void *__init of_get_flat_dt_prop(unsigned long node, const char *name,
				       int *size)
{
 c84:	e51bc044 	ldr	ip, [fp, #-68]	; 0xffffffbc
 c88:	e14b03d4 	ldrd	r0, [fp, #-52]	; 0xffffffcc
 c8c:	e58dc000 	str	ip, [sp]
	return fdt_getprop(initial_boot_params, node, name, size);
 c90:	ebfffffe 	bl	9b8 <early_init_dt_reserve_memory_arch>
 c94:	e3500000 	cmp	r0, #0
 c98:	1afffff3 	bne	c6c <__fdt_scan_reserved_mem+0x20c>
 c9c:	e51b3040 	ldr	r3, [fp, #-64]	; 0xffffffc0
 ca0:	e3530000 	cmp	r3, #0
 ca4:	e51b303c 	ldr	r3, [fp, #-60]	; 0xffffffc4
 ca8:	e0433008 	sub	r3, r3, r8
}
 cac:	e50b303c 	str	r3, [fp, #-60]	; 0xffffffc4
/**
 * early_init_dt_scan_root - fetch the top level address and size cells
 */
int __init early_init_dt_scan_root(unsigned long node, const char *uname,
				   int depth, void *data)
{
 cb0:	0affffdd 	beq	c2c <__fdt_scan_reserved_mem+0x1cc>
 cb4:	e14b23d4 	ldrd	r2, [fp, #-52]	; 0xffffffcc
 cb8:	e1a01009 	mov	r1, r9
	const __be32 *prop;

	if (depth != 0)
 cbc:	e1cd60f0 	strd	r6, [sp]
/**
 * early_init_dt_scan_root - fetch the top level address and size cells
 */
int __init early_init_dt_scan_root(unsigned long node, const char *uname,
				   int depth, void *data)
{
 cc0:	e1a00004 	mov	r0, r4
	const __be32 *prop;

	if (depth != 0)
 cc4:	e3a0c000 	mov	ip, #0
		return 0;

	dt_root_size_cells = OF_ROOT_NODE_SIZE_CELLS_DEFAULT;
 cc8:	e50bc040 	str	ip, [fp, #-64]	; 0xffffffc0
 ccc:	ebfffffe 	bl	0 <fdt_reserved_mem_save_node>
	dt_root_addr_cells = OF_ROOT_NODE_ADDR_CELLS_DEFAULT;

	prop = of_get_flat_dt_prop(node, "#size-cells", NULL);
 cd0:	eaffffd5 	b	c2c <__fdt_scan_reserved_mem+0x1cc>
 cd4:	e1a02000 	mov	r2, r0
	const __be32 *prop;

	if (depth != 0)
		return 0;

	dt_root_size_cells = OF_ROOT_NODE_SIZE_CELLS_DEFAULT;
 cd8:	e3001000 	movw	r1, #0
 cdc:	e1a00004 	mov	r0, r4
	dt_root_addr_cells = OF_ROOT_NODE_ADDR_CELLS_DEFAULT;
 ce0:	e3401000 	movt	r1, #0

	prop = of_get_flat_dt_prop(node, "#size-cells", NULL);
 ce4:	ebfffffe 	bl	2d8 <of_get_flat_dt_prop>
	if (prop)
		dt_root_size_cells = be32_to_cpup(prop);
	pr_debug("dt_root_size_cells = %x\n", dt_root_size_cells);

	prop = of_get_flat_dt_prop(node, "#address-cells", NULL);
 ce8:	e3500000 	cmp	r0, #0
 cec:	0affff69 	beq	a98 <__fdt_scan_reserved_mem+0x38>
 cf0:	e3a02000 	mov	r2, #0

	dt_root_size_cells = OF_ROOT_NODE_SIZE_CELLS_DEFAULT;
	dt_root_addr_cells = OF_ROOT_NODE_ADDR_CELLS_DEFAULT;

	prop = of_get_flat_dt_prop(node, "#size-cells", NULL);
	if (prop)
 cf4:	e3a03000 	mov	r3, #0
 cf8:	e1a01009 	mov	r1, r9
		dt_root_size_cells = be32_to_cpup(prop);
	pr_debug("dt_root_size_cells = %x\n", dt_root_size_cells);

	prop = of_get_flat_dt_prop(node, "#address-cells", NULL);
 cfc:	e1a00004 	mov	r0, r4
 d00:	e1cd20f0 	strd	r2, [sp]
	dt_root_size_cells = OF_ROOT_NODE_SIZE_CELLS_DEFAULT;
	dt_root_addr_cells = OF_ROOT_NODE_ADDR_CELLS_DEFAULT;

	prop = of_get_flat_dt_prop(node, "#size-cells", NULL);
	if (prop)
		dt_root_size_cells = be32_to_cpup(prop);
 d04:	e1a05006 	mov	r5, r6
	pr_debug("dt_root_size_cells = %x\n", dt_root_size_cells);

	prop = of_get_flat_dt_prop(node, "#address-cells", NULL);
 d08:	ebfffffe 	bl	0 <fdt_reserved_mem_save_node>
	if (prop)
 d0c:	ea000003 	b	d20 <__fdt_scan_reserved_mem+0x2c0>
 d10:	e3000000 	movw	r0, #0
 d14:	e3400000 	movt	r0, #0
		dt_root_addr_cells = be32_to_cpup(prop);
 d18:	ebfffffe 	bl	0 <printk>
 d1c:	e3a05001 	mov	r5, #1
 d20:	e1a00005 	mov	r0, r5
 d24:	e24bd028 	sub	sp, fp, #40	; 0x28
				   int depth, void *data)
{
	const __be32 *prop;

	if (depth != 0)
		return 0;
 d28:	e89daff0 	ldm	sp, {r4, r5, r6, r7, r8, r9, sl, fp, sp, pc}

00000d2c <early_init_fdt_reserve_self>:
 d2c:	e1a0c00d 	mov	ip, sp
	if (prop)
		dt_root_size_cells = be32_to_cpup(prop);
	pr_debug("dt_root_size_cells = %x\n", dt_root_size_cells);

	prop = of_get_flat_dt_prop(node, "#address-cells", NULL);
	if (prop)
 d30:	e92dd800 	push	{fp, ip, lr, pc}
		dt_root_addr_cells = be32_to_cpup(prop);
	pr_debug("dt_root_addr_cells = %x\n", dt_root_addr_cells);

	/* break now */
	return 1;
}
 d34:	e24cb004 	sub	fp, ip, #4
	return 0;
}

int __init early_init_dt_scan_chosen(unsigned long node, const char *uname,
				     int depth, void *data)
{
 d38:	e24dd008 	sub	sp, sp, #8
 d3c:	e3003000 	movw	r3, #0
 d40:	e3403000 	movt	r3, #0
 d44:	e5933000 	ldr	r3, [r3]
	int l;
	const char *p;

	pr_debug("search \"chosen\", depth: %d, uname: %s\n", depth, uname);

	if (depth != 1 || !data ||
 d48:	e3530000 	cmp	r3, #0
	return 0;
}

int __init early_init_dt_scan_chosen(unsigned long node, const char *uname,
				     int depth, void *data)
{
 d4c:	0a000007 	beq	d70 <early_init_fdt_reserve_self+0x44>
 d50:	e3a01081 	mov	r1, #129	; 0x81
	int l;
	const char *p;

	pr_debug("search \"chosen\", depth: %d, uname: %s\n", depth, uname);

	if (depth != 1 || !data ||
 d54:	e2930481 	adds	r0, r3, #-2130706432	; 0x81000000
 d58:	e2a11000 	adc	r1, r1, #0
 d5c:	e5932004 	ldr	r2, [r3, #4]
 d60:	e3a03000 	mov	r3, #0
 d64:	e58d3000 	str	r3, [sp]
	    (strcmp(uname, "chosen") != 0 && strcmp(uname, "chosen@0") != 0))
		return 0;
 d68:	e6bf2f32 	rev	r2, r2
	int l;
	const char *p;

	pr_debug("search \"chosen\", depth: %d, uname: %s\n", depth, uname);

	if (depth != 1 || !data ||
 d6c:	ebfffffe 	bl	9b8 <early_init_dt_reserve_memory_arch>
	    (strcmp(uname, "chosen") != 0 && strcmp(uname, "chosen@0") != 0))
 d70:	e24bd00c 	sub	sp, fp, #12
 d74:	e89da800 	ldm	sp, {fp, sp, pc}

00000d78 <early_init_dt_verify>:
 d78:	e1a0c00d 	mov	ip, sp
 d7c:	e92dd830 	push	{r4, r5, fp, ip, lr, pc}
	int l;
	const char *p;

	pr_debug("search \"chosen\", depth: %d, uname: %s\n", depth, uname);

	if (depth != 1 || !data ||
 d80:	e24cb004 	sub	fp, ip, #4
 d84:	e2505000 	subs	r5, r0, #0
	    (strcmp(uname, "chosen") != 0 && strcmp(uname, "chosen@0") != 0))
 d88:	1a000001 	bne	d94 <early_init_dt_verify+0x1c>
 d8c:	e3a03000 	mov	r3, #0
 d90:	ea00000c 	b	dc8 <early_init_dt_verify+0x50>
 d94:	ebfffffe 	bl	0 <fdt_check_header>
 d98:	e3500000 	cmp	r0, #0
		return 0;
 d9c:	1afffffa 	bne	d8c <early_init_dt_verify+0x14>
	const char *p;

	pr_debug("search \"chosen\", depth: %d, uname: %s\n", depth, uname);

	if (depth != 1 || !data ||
	    (strcmp(uname, "chosen") != 0 && strcmp(uname, "chosen@0") != 0))
 da0:	e5952004 	ldr	r2, [r5, #4]
	int len;
	const __be32 *prop;

	pr_debug("Looking for initrd properties... ");

	prop = of_get_flat_dt_prop(node, "linux,initrd-start", &len);
 da4:	e3004000 	movw	r4, #0
 da8:	e3404000 	movt	r4, #0
 dac:	e1a01005 	mov	r1, r5
 db0:	e6bf2f32 	rev	r2, r2
 db4:	e3e00000 	mvn	r0, #0
	if (!prop)
 db8:	e5845000 	str	r5, [r4]
 dbc:	ebfffffe 	bl	0 <crc32_be>
		return;
	start = of_read_number(prop, len/4);
 dc0:	e3a03001 	mov	r3, #1
 */

/* Helper to read a big number; size is in cells (not bytes) */
static inline u64 of_read_number(const __be32 *cell, int size)
{
	u64 r = 0;
 dc4:	e5840008 	str	r0, [r4, #8]
 dc8:	e1a00003 	mov	r0, r3
 dcc:	e89da830 	ldm	sp, {r4, r5, fp, sp, pc}

00000dd0 <early_init_dt_scan_nodes>:
 dd0:	e1a0c00d 	mov	ip, sp
 dd4:	e92dd800 	push	{fp, ip, lr, pc}
	while (size--)
 dd8:	e24cb004 	sub	fp, ip, #4
		r = (r << 32) | be32_to_cpu(*(cell++));
 ddc:	e3001000 	movw	r1, #0

/* Helper to read a big number; size is in cells (not bytes) */
static inline u64 of_read_number(const __be32 *cell, int size)
{
	u64 r = 0;
	while (size--)
 de0:	e3000000 	movw	r0, #0
 de4:	e3401000 	movt	r1, #0
 de8:	e3400000 	movt	r0, #0
		r = (r << 32) | be32_to_cpu(*(cell++));
 dec:	ebfffffe 	bl	1d8 <of_scan_flat_dt>
 df0:	e3a01000 	mov	r1, #0

	prop = of_get_flat_dt_prop(node, "linux,initrd-end", &len);
 df4:	e3000000 	movw	r0, #0
 df8:	e3400000 	movt	r0, #0
 dfc:	ebfffffe 	bl	1d8 <of_scan_flat_dt>
 e00:	e3000000 	movw	r0, #0
 e04:	e3a01000 	mov	r1, #0
	if (!prop)
 e08:	e3400000 	movt	r0, #0
 e0c:	ebfffffe 	bl	1d8 <of_scan_flat_dt>
		return;
	end = of_read_number(prop, len/4);
 e10:	e89da800 	ldm	sp, {fp, sp, pc}

00000e14 <early_init_dt_scan>:
 */

/* Helper to read a big number; size is in cells (not bytes) */
static inline u64 of_read_number(const __be32 *cell, int size)
{
	u64 r = 0;
 e14:	e1a0c00d 	mov	ip, sp
 e18:	e92dd800 	push	{fp, ip, lr, pc}
 e1c:	e24cb004 	sub	fp, ip, #4
 e20:	ebfffffe 	bl	d78 <early_init_dt_verify>
 e24:	e3500000 	cmp	r0, #0
	while (size--)
 e28:	089da800 	ldmeq	sp, {fp, sp, pc}
		r = (r << 32) | be32_to_cpu(*(cell++));
 e2c:	ebfffffe 	bl	dd0 <early_init_dt_scan_nodes>

/* Helper to read a big number; size is in cells (not bytes) */
static inline u64 of_read_number(const __be32 *cell, int size)
{
	u64 r = 0;
	while (size--)
 e30:	e3a00001 	mov	r0, #1
		r = (r << 32) | be32_to_cpu(*(cell++));
 e34:	e89da800 	ldm	sp, {fp, sp, pc}

00000e38 <unflatten_device_tree>:
 e38:	e1a0c00d 	mov	ip, sp

/* Helper to read a big number; size is in cells (not bytes) */
static inline u64 of_read_number(const __be32 *cell, int size)
{
	u64 r = 0;
	while (size--)
 e3c:	e92dd830 	push	{r4, r5, fp, ip, lr, pc}
 e40:	e24cb004 	sub	fp, ip, #4
		r = (r << 32) | be32_to_cpu(*(cell++));
 e44:	e3004000 	movw	r4, #0
 e48:	e3003000 	movw	r3, #0
 e4c:	e3404000 	movt	r4, #0
 e50:	e3403000 	movt	r3, #0
#ifdef CONFIG_BLK_DEV_INITRD
#ifndef __early_init_dt_declare_initrd
static void __early_init_dt_declare_initrd(unsigned long start,
					   unsigned long end)
{
	initrd_start = (unsigned long)__va(start);
 e54:	e3001000 	movw	r1, #0
	initrd_end = (unsigned long)__va(end);
 e58:	e3401000 	movt	r1, #0
#ifdef CONFIG_BLK_DEV_INITRD
#ifndef __early_init_dt_declare_initrd
static void __early_init_dt_declare_initrd(unsigned long start,
					   unsigned long end)
{
	initrd_start = (unsigned long)__va(start);
 e5c:	e5930000 	ldr	r0, [r3]
	initrd_end = (unsigned long)__va(end);
 e60:	e1a02004 	mov	r2, r4
	initrd_below_start_ok = 1;
 e64:	ebfffffe 	bl	59c <of_flat_dt_get_machine_name+0x10>
 e68:	e1a00004 	mov	r0, r4
 e6c:	ebfffffe 	bl	0 <of_alias_scan>
 e70:	e89da830 	ldm	sp, {r4, r5, fp, sp, pc}

00000e74 <unflatten_and_copy_device_tree>:
#ifdef CONFIG_BLK_DEV_INITRD
#ifndef __early_init_dt_declare_initrd
static void __early_init_dt_declare_initrd(unsigned long start,
					   unsigned long end)
{
	initrd_start = (unsigned long)__va(start);
 e74:	e1a0c00d 	mov	ip, sp
	initrd_end = (unsigned long)__va(end);
	initrd_below_start_ok = 1;
 e78:	e92dd8f0 	push	{r4, r5, r6, r7, fp, ip, lr, pc}
#ifndef __early_init_dt_declare_initrd
static void __early_init_dt_declare_initrd(unsigned long start,
					   unsigned long end)
{
	initrd_start = (unsigned long)__va(start);
	initrd_end = (unsigned long)__va(end);
 e7c:	e24cb004 	sub	fp, ip, #4
	initrd_below_start_ok = 1;
 e80:	e3004000 	movw	r4, #0
		return 0;

	early_init_dt_check_for_initrd(node);

	/* Retrieve command line */
	p = of_get_flat_dt_prop(node, "bootargs", &l);
 e84:	e3404000 	movt	r4, #0
 e88:	e5943000 	ldr	r3, [r4]
 e8c:	e3530000 	cmp	r3, #0
 e90:	1a000003 	bne	ea4 <unflatten_and_copy_device_tree+0x30>
 e94:	e3000000 	movw	r0, #0
	if (p != NULL && l > 0)
 e98:	e3400000 	movt	r0, #0
 e9c:	ebfffffe 	bl	0 <printk>
 ea0:	e89da8f0 	ldm	sp, {r4, r5, r6, r7, fp, sp, pc}
 ea4:	e5935004 	ldr	r5, [r3, #4]
 ea8:	e3a02040 	mov	r2, #64	; 0x40
		strlcpy(data, p, min((int)l, COMMAND_LINE_SIZE));
 eac:	e3a03000 	mov	r3, #0
 eb0:	e6bf5f35 	rev	r5, r5
 eb4:	e1a00005 	mov	r0, r5
 eb8:	e1a01fc5 	asr	r1, r5, #31
	 * managed to set the command line, unless CONFIG_CMDLINE_FORCE
	 * is set in which case we override whatever was found earlier.
	 */
#ifdef CONFIG_CMDLINE
#ifndef CONFIG_CMDLINE_FORCE
	if (!((char *)data)[0])
 ebc:	ebfffffe 	bl	148 <early_init_dt_alloc_memory_arch>
 ec0:	e2506000 	subs	r6, r0, #0
 ec4:	0a000003 	beq	ed8 <unflatten_and_copy_device_tree+0x64>
#endif
		strlcpy(data, CONFIG_CMDLINE, COMMAND_LINE_SIZE);
 ec8:	e1a02005 	mov	r2, r5
 ecc:	e5941000 	ldr	r1, [r4]
 ed0:	ebfffffe 	bl	0 <memcpy>
 ed4:	e5846000 	str	r6, [r4]
 ed8:	ebfffffe 	bl	e38 <unflatten_device_tree>
 edc:	e89da8f0 	ldm	sp, {r4, r5, r6, r7, fp, sp, pc}

Disassembly of section .pv_table:

00000000 <.pv_table>:

	pr_debug(" <- unflatten_device_tree()\n");
}

static void *kernel_tree_alloc(u64 size, u64 align)
{
   0:	00000158 	andeq	r0, r0, r8, asr r1
   4:	000004c0 	andeq	r0, r0, r0, asr #9
   8:	000004c4 	andeq	r0, r0, r4, asr #9
   c:	0000074c 	andeq	r0, r0, ip, asr #14
  10:	00000754 	andeq	r0, r0, r4, asr r7
  14:	00000d50 	andeq	r0, r0, r0, asr sp
  18:	00000d54 	andeq	r0, r0, r4, asr sp

Disassembly of section ___kcrctab_gpl+of_fdt_unflatten_tree:

00000000 <__kcrctab_of_fdt_unflatten_tree>:
   0:	00000000 	andeq	r0, r0, r0

Disassembly of section ___ksymtab_gpl+of_fdt_unflatten_tree:

00000000 <__ksymtab_of_fdt_unflatten_tree>:
	...

Disassembly of section __ksymtab_strings:

00000000 <__kstrtab_of_fdt_unflatten_tree>:
   0:	665f666f 	ldrbvs	r6, [pc], -pc, ror #12
   4:	755f7464 	ldrbvc	r7, [pc, #-1124]	; fffffba8 <__crc_of_fdt_unflatten_tree+0x792be5eb>
   8:	616c666e 	cmnvs	ip, lr, ror #12
   c:	6e657474 	mcrvs	4, 3, r7, cr5, cr4, {3}
  10:	6572745f 	ldrbvs	r7, [r2, #-1119]!	; 0xfffffba1
  14:	Address 0x0000000000000014 is out of bounds.


Disassembly of section .init.rodata:

00000000 <__setup_str_setup_of_earlycon>:

	pr_debug(" <- unflatten_device_tree()\n");
}

static void *kernel_tree_alloc(u64 size, u64 align)
{
   0:	6c726165 	ldfvse	f6, [r2], #-404	; 0xfffffe6c
   4:	6e6f6379 	mcrvs	3, 3, r6, cr15, cr9, {3}
	...

Disassembly of section .initcall7.init:

00000000 <__initcall_of_fdt_raw_init7>:

	pr_debug(" <- unflatten_device_tree()\n");
}

static void *kernel_tree_alloc(u64 size, u64 align)
{
   0:	00000000 	andeq	r0, r0, r0

Disassembly of section .init.setup:

00000000 <__setup_setup_of_earlycon>:
	...
   8:	00000001 	andeq	r0, r0, r1

Disassembly of section .init.data:

00000000 <dt_root_size_cells>:
   0:	00000000 	andeq	r0, r0, r0

00000004 <dt_root_addr_cells>:
   4:	00000000 	andeq	r0, r0, r0
